

Microchip MPLAB XC8 Assembler V2.40 build 20220703182018 
                                                                                               Thu Jun 01 18:15:12 2023

Microchip MPLAB XC8 C Compiler v2.40 (Free license) build 20220703182018 Og1 
     1                           	processor	18F87K22
     2                           	fnconf	rparam,??,?,0
     3                           	pagewidth 120
     4                           	opt	flic
     5                           	psect	smallconst,global,reloc=2,class=SMALLCONST,delta=1,noexec
     6                           	psect	nvBANK0,global,class=BANK0,space=1,delta=1,lowdata,noexec
     7                           	psect	cinit,global,reloc=2,class=CODE,delta=1
     8                           	psect	bssCOMRAM,global,class=COMRAM,space=1,delta=1,lowdata,noexec
     9                           	psect	bssBANK0,global,class=BANK0,space=1,delta=1,lowdata,noexec
    10                           	psect	bssBANK1,global,class=BANK1,space=1,delta=1,lowdata,noexec
    11                           	psect	bssBANK2,global,class=BANK2,space=1,delta=1,lowdata,noexec
    12                           	psect	cstackBANK1,global,class=BANK1,space=1,delta=1,lowdata,noexec
    13                           	psect	cstackBANK0,global,class=BANK0,space=1,delta=1,lowdata,noexec
    14                           	psect	cstackCOMRAM,global,class=COMRAM,space=1,delta=1,lowdata,noexec
    15                           	psect	text0,global,reloc=2,class=CODE,delta=1
    16                           	psect	text1,global,reloc=2,class=CODE,delta=1
    17                           	psect	text2,global,reloc=2,class=CODE,delta=1
    18                           	psect	text3,global,reloc=2,class=CODE,delta=1
    19                           	psect	text4,global,reloc=2,class=CODE,delta=1
    20                           	psect	text5,global,reloc=2,class=CODE,delta=1
    21                           	psect	text6,global,reloc=2,class=CODE,delta=1
    22                           	psect	text7,global,reloc=2,class=CODE,delta=1
    23                           	psect	text8,global,reloc=2,class=CODE,delta=1
    24                           	psect	text9,global,reloc=2,class=CODE,delta=1
    25                           	psect	text10,global,reloc=2,class=CODE,delta=1
    26                           	psect	text11,global,reloc=2,class=CODE,delta=1
    27                           	psect	text12,global,reloc=2,class=CODE,delta=1
    28                           	psect	text13,global,reloc=2,class=CODE,delta=1
    29                           	psect	text14,global,reloc=2,class=CODE,delta=1
    30                           	psect	text15,global,reloc=2,class=CODE,delta=1
    31                           	psect	text16,global,reloc=2,class=CODE,delta=1
    32                           	psect	text17,global,reloc=2,class=CODE,delta=1,inline
    33                           	psect	text18,global,reloc=2,class=CODE,delta=1
    34                           	psect	text19,global,reloc=2,class=CODE,delta=1
    35                           	psect	text20,global,reloc=2,class=CODE,delta=1
    36                           	psect	text21,global,reloc=2,class=CODE,delta=1,inline
    37                           	psect	text22,global,reloc=2,class=CODE,delta=1,inline
    38                           	psect	text23,global,reloc=2,class=CODE,delta=1
    39                           	psect	text24,global,reloc=2,class=CODE,delta=1
    40                           	psect	text25,global,reloc=2,class=CODE,delta=1
    41                           	psect	text26,global,reloc=2,class=CODE,delta=1
    42                           	psect	text27,global,reloc=2,class=CODE,delta=1
    43                           	psect	text28,global,reloc=2,class=CODE,delta=1
    44                           	psect	text29,global,reloc=2,class=CODE,delta=1
    45                           	psect	text30,global,reloc=2,class=CODE,delta=1
    46                           	psect	text31,global,reloc=2,class=CODE,delta=1
    47                           	psect	text32,global,reloc=2,class=CODE,delta=1
    48                           	psect	text33,global,reloc=2,class=CODE,delta=1
    49                           	psect	text34,global,reloc=2,class=CODE,delta=1
    50                           	psect	text35,global,reloc=2,class=CODE,delta=1
    51                           	psect	text36,global,reloc=2,class=CODE,delta=1
    52                           	psect	text37,global,reloc=2,class=CODE,delta=1
    53                           	psect	text38,global,reloc=2,class=CODE,delta=1
    54                           	psect	text39,global,reloc=2,class=CODE,delta=1,inline
    55                           	psect	text40,global,reloc=2,class=CODE,delta=1,inline
    56                           	psect	text41,global,reloc=2,class=CODE,delta=1,inline
    57                           	psect	text42,global,reloc=2,class=CODE,delta=1,inline
    58                           	psect	text43,global,reloc=2,class=CODE,delta=1,inline
    59                           	psect	text44,global,reloc=2,class=CODE,delta=1,inline
    60                           	psect	text45,global,reloc=2,class=CODE,delta=1,inline
    61                           	psect	text46,global,reloc=2,class=CODE,delta=1
    62                           	psect	text47,global,reloc=2,class=CODE,delta=1
    63                           	psect	text48,global,reloc=2,class=CODE,delta=1
    64                           	psect	text49,global,reloc=2,class=CODE,delta=1
    65                           	psect	text50,global,reloc=2,class=CODE,delta=1
    66                           	psect	text51,global,reloc=2,class=CODE,delta=1
    67                           	psect	text52,global,reloc=2,class=CODE,delta=1
    68                           	psect	text53,global,reloc=2,class=CODE,delta=1
    69                           	psect	text54,global,reloc=2,class=CODE,delta=1
    70                           	psect	text55,global,reloc=2,class=CODE,delta=1
    71                           	psect	text56,global,reloc=2,class=CODE,delta=1,inline
    72                           	psect	text57,global,reloc=2,class=CODE,delta=1,inline
    73                           	psect	text58,global,reloc=2,class=CODE,delta=1,inline
    74                           	psect	text59,global,reloc=2,class=CODE,delta=1
    75                           	psect	text60,global,reloc=2,class=CODE,delta=1,inline
    76                           	psect	text61,global,reloc=2,class=CODE,delta=1,inline
    77                           	psect	text62,global,reloc=2,class=CODE,delta=1,inline
    78                           	psect	text63,global,reloc=2,class=CODE,delta=1
    79                           	psect	intsave_regs,global,class=BIGRAM,space=1,delta=1,noexec
    80                           	psect	text64,global,reloc=2,class=CODE,delta=1
    81                           	psect	rparam,global,class=COMRAM,space=1,delta=1,noexec
    82                           	psect	idloc,global,abs,ovrld,class=IDLOC,space=5,delta=1,noexec
    83                           	psect	config,global,abs,ovrld,class=CONFIG,space=4,delta=1,noexec
    84   000000                     
    85                           ; Version 2.35
    86                           ; Generated 05/05/2021 GMT
    87                           ; 
    88                           ; Copyright © 2021, Microchip Technology Inc. and its subsidiaries ("Microchip")
    89                           ; All rights reserved.
    90                           ; 
    91                           ; This software is developed by Microchip Technology Inc. and its subsidiaries ("Microch
      +                          ip").
    92                           ; 
    93                           ; Redistribution and use in source and binary forms, with or without modification, are
    94                           ; permitted provided that the following conditions are met:
    95                           ; 
    96                           ;     1. Redistributions of source code must retain the above copyright notice, this lis
      +                          t of
    97                           ;        conditions and the following disclaimer.
    98                           ; 
    99                           ;     2. Redistributions in binary form must reproduce the above copyright notice, this 
      +                          list
   100                           ;        of conditions and the following disclaimer in the documentation and/or other
   101                           ;        materials provided with the distribution. Publication is not required when
   102                           ;        this file is used in an embedded application.
   103                           ; 
   104                           ;     3. Microchip's name may not be used to endorse or promote products derived from th
      +                          is
   105                           ;        software without specific prior written permission.
   106                           ; 
   107                           ; THIS SOFTWARE IS PROVIDED BY MICROCHIP "AS IS" AND ANY EXPRESS OR IMPLIED WARRANTIES,
   108                           ; INCLUDING, BUT NOT LIMITED TO, THE IMPLIED WARRANTIES OF MERCHANTABILITY AND FITNESS F
      +                          OR
   109                           ; PURPOSE ARE DISCLAIMED.  IN NO EVENT SHALL MICROCHIP BE LIABLE FOR ANY DIRECT, INDIREC
      +                          T,
   110                           ; INCIDENTAL, SPECIAL, EXEMPLARY, OR CONSEQUENTIAL DAMAGES (INCLUDING BUT NOT LIMITED TO
   111                           ; PROCUREMENT OF SUBSTITUTE GOODS OR SERVICES; LOSS OF USE, DATA OR PROFITS; OR BUSINESS
   112                           ; INTERRUPTION) HOWSOEVER CAUSED AND ON ANY THEORY OF LIABILITY, WHETHER IN CONTRACT, ST
      +                          RICT
   113                           ; LIABILITY, OR TORT (INCLUDING NEGLIGENCE OR OTHERWISE) ARISING IN ANY WAY OUT OF THE U
      +                          SE OF
   114                           ; THIS SOFTWARE, EVEN IF ADVISED OF THE POSSIBILITY OF SUCH DAMAGE.
   115                           ; 
   116                           ; 
   117                           ; Code-generator required, PIC18F87K22 Definitions
   118                           ; 
   119                           ; SFR Addresses
   120   000000                     
   121 ;; Function _EUSART1_DefaultFramingErrorHandler is unused but had its address taken
   122   000000                     
   123 ;; Function _EUSART1_DefaultOverrunErrorHandler is unused but had its address taken
   124   000000                     
   125 ;; Function _EUSART1_DefaultErrorHandler is unused but had its address taken
   126   000000                     
   127                           	psect	smallconst
   128   001000                     __psmallconst:
   129                           	callstack 0
   130   001000  00                 	db	0
   131   001001                     _i2c1_fsmStateTable:
   132                           	callstack 0
   133   001001  54                 	db	low _I2C1_DO_IDLE
   134   001002  1B                 	db	high _I2C1_DO_IDLE
   135   001003  00                 	db	low (_I2C1_DO_IDLE shr (0+16))
   136   001004  32                 	db	low _I2C1_DO_SEND_ADR_READ
   137   001005  1B                 	db	high _I2C1_DO_SEND_ADR_READ
   138   001006  00                 	db	low (_I2C1_DO_SEND_ADR_READ shr (0+16))
   139   001007  24                 	db	low _I2C1_DO_SEND_ADR_WRITE
   140   001008  1B                 	db	high _I2C1_DO_SEND_ADR_WRITE
   141   001009  00                 	db	low (_I2C1_DO_SEND_ADR_WRITE shr (0+16))
   142   00100A  58                 	db	low _I2C1_DO_TX
   143   00100B  11                 	db	high _I2C1_DO_TX
   144   00100C  00                 	db	low (_I2C1_DO_TX shr (0+16))
   145   00100D  D8                 	db	low _I2C1_DO_RX
   146   00100E  12                 	db	high _I2C1_DO_RX
   147   00100F  00                 	db	low (_I2C1_DO_RX shr (0+16))
   148   001010  4A                 	db	low _I2C1_DO_RCEN
   149   001011  1B                 	db	high _I2C1_DO_RCEN
   150   001012  00                 	db	low (_I2C1_DO_RCEN shr (0+16))
   151   001013  28                 	db	low _I2C1_DO_TX_EMPTY
   152   001014  15                 	db	high _I2C1_DO_TX_EMPTY
   153   001015  00                 	db	low (_I2C1_DO_TX_EMPTY shr (0+16))
   154   001016  96                 	db	low _I2C1_DO_SEND_RESTART_READ
   155   001017  1B                 	db	high _I2C1_DO_SEND_RESTART_READ
   156   001018  00                 	db	low (_I2C1_DO_SEND_RESTART_READ shr (0+16))
   157   001019  8E                 	db	low _I2C1_DO_SEND_RESTART_WRITE
   158   00101A  1B                 	db	high _I2C1_DO_SEND_RESTART_WRITE
   159   00101B  00                 	db	low (_I2C1_DO_SEND_RESTART_WRITE shr (0+16))
   160   00101C  86                 	db	low _I2C1_DO_SEND_RESTART
   161   00101D  1B                 	db	high _I2C1_DO_SEND_RESTART
   162   00101E  00                 	db	low (_I2C1_DO_SEND_RESTART shr (0+16))
   163   00101F  7E                 	db	low _I2C1_DO_SEND_STOP
   164   001020  1B                 	db	high _I2C1_DO_SEND_STOP
   165   001021  00                 	db	low (_I2C1_DO_SEND_STOP shr (0+16))
   166   001022  76                 	db	low _I2C1_DO_RX_ACK
   167   001023  1B                 	db	high _I2C1_DO_RX_ACK
   168   001024  00                 	db	low (_I2C1_DO_RX_ACK shr (0+16))
   169   001025  6E                 	db	low _I2C1_DO_RX_NACK_STOP
   170   001026  1B                 	db	high _I2C1_DO_RX_NACK_STOP
   171   001027  00                 	db	low (_I2C1_DO_RX_NACK_STOP shr (0+16))
   172   001028  66                 	db	low _I2C1_DO_RX_NACK_RESTART
   173   001029  1B                 	db	high _I2C1_DO_RX_NACK_RESTART
   174   00102A  00                 	db	low (_I2C1_DO_RX_NACK_RESTART shr (0+16))
   175   00102B  40                 	db	low _I2C1_DO_RESET
   176   00102C  1B                 	db	high _I2C1_DO_RESET
   177   00102D  00                 	db	low (_I2C1_DO_RESET shr (0+16))
   178   00102E  84                 	db	low _I2C1_DO_ADDRESS_NACK
   179   00102F  16                 	db	high _I2C1_DO_ADDRESS_NACK
   180   001030  00                 	db	low (_I2C1_DO_ADDRESS_NACK shr (0+16))
   181   001031                     __end_of_i2c1_fsmStateTable:
   182                           	callstack 0
   183   000000                     _TRISD	set	3989
   184   000000                     _TRISC	set	3988
   185   000000                     _TRISB	set	3987
   186   000000                     _LATC	set	3979
   187   000000                     _LATB	set	3978
   188   000000                     _TXREG1	set	4013
   189   000000                     _RCREG1	set	4014
   190   000000                     _SPBRG1	set	4015
   191   000000                     _TXSTA1	set	4012
   192   001031  00                 	db	0	; dummy byte at the end
   193   000000                     
   194                           	psect	nvBANK0
   195   0000E0                     __pnvBANK0:
   196                           	callstack 0
   197   0000E0                     _EUSART1_ErrorHandler:
   198                           	callstack 0
   199   0000E0                     	ds	3
   200   0000E3                     _EUSART1_OverrunErrorHandler:
   201                           	callstack 0
   202   0000E3                     	ds	3
   203   0000E6                     _EUSART1_FramingErrorHandler:
   204                           	callstack 0
   205   0000E6                     	ds	3
   206   000000                     _SSP1STATbits	set	4039
   207   000000                     _SSP1CON2bits	set	4037
   208   000000                     _SSP1CON1bits	set	4038
   209   000000                     _RCSTA1bits	set	4011
   210   000000                     _TXSTA1bits	set	4012
   211   000000                     _ANCON2	set	3875
   212   000000                     _ANCON1	set	3876
   213   000000                     _ANCON0	set	3877
   214   000000                     _BAUDCON1	set	3941
   215   000000                     _LATA	set	3977
   216   000000                     _LATD	set	3980
   217   000000                     _LATE	set	3981
   218   000000                     _PIE1bits	set	3997
   219   000000                     _PIR1bits	set	3998
   220   000000                     _RCSTA1	set	4011
   221   000000                     _SSP1CON2	set	4037
   222   000000                     _SSP1CON1	set	4038
   223   000000                     _SSP1STAT	set	4039
   224   000000                     _SPBRGH1	set	4052
   225   000000                     _INTCONbits	set	4082
   226   000000                     _PIR2bits	set	4001
   227   000000                     _OSCCON	set	4051
   228   000000                     _SSP1BUF	set	4041
   229   000000                     _SSP1ADD	set	4040
   230   000000                     _TRISA	set	3986
   231   000000                     _TRISE	set	3990
   232   000000                     _LATH	set	3984
   233   000000                     _LATG	set	3983
   234   000000                     _LATF	set	3982
   235   000000                     _OSCTUNE	set	3995
   236   000000                     _TRISH	set	3993
   237   000000                     _TRISG	set	3992
   238   000000                     _TRISF	set	3991
   239   000000                     _REFOCON	set	3882
   240   000000                     _OSCCON2	set	3940
   241                           
   242                           ; #config settings
   243                           
   244                           	psect	cinit
   245   0018A2                     __pcinit:
   246                           	callstack 0
   247   0018A2                     start_initialization:
   248                           	callstack 0
   249   0018A2                     __initialization:
   250                           	callstack 0
   251                           
   252                           ; Clear objects allocated to BANK2 (128 bytes)
   253   0018A2  EE02  F000         	lfsr	0,__pbssBANK2
   254   0018A6  0E80               	movlw	128
   255   0018A8                     clear_0:
   256   0018A8  6AEE               	clrf	postinc0,c
   257   0018AA  06E8               	decf	wreg,f,c
   258   0018AC  E1FD               	bnz	clear_0
   259                           
   260                           ; Clear objects allocated to BANK1 (128 bytes)
   261   0018AE  EE01  F000         	lfsr	0,__pbssBANK1
   262   0018B2  0E80               	movlw	128
   263   0018B4                     clear_1:
   264   0018B4  6AEE               	clrf	postinc0,c
   265   0018B6  06E8               	decf	wreg,f,c
   266   0018B8  E1FD               	bnz	clear_1
   267                           
   268                           ; Clear objects allocated to BANK0 (8 bytes)
   269   0018BA  EE00  F0E9         	lfsr	0,__pbssBANK0
   270   0018BE  0E08               	movlw	8
   271   0018C0                     clear_2:
   272   0018C0  6AEE               	clrf	postinc0,c
   273   0018C2  06E8               	decf	wreg,f,c
   274   0018C4  E1FD               	bnz	clear_2
   275                           
   276                           ; Clear objects allocated to COMRAM (47 bytes)
   277   0018C6  EE00  F001         	lfsr	0,__pbssCOMRAM
   278   0018CA  0E2F               	movlw	47
   279   0018CC                     clear_3:
   280   0018CC  6AEE               	clrf	postinc0,c
   281   0018CE  06E8               	decf	wreg,f,c
   282   0018D0  E1FD               	bnz	clear_3
   283   0018D2                     end_of_initialization:
   284                           	callstack 0
   285   0018D2                     __end_of__initialization:
   286                           	callstack 0
   287   0018D2  0100               	movlb	0
   288   0018D4  EF19  F008         	goto	_main	;jump to C main() function
   289                           
   290                           	psect	bssCOMRAM
   291   000001                     __pbssCOMRAM:
   292                           	callstack 0
   293   000001                     _I2C1_Status:
   294                           	callstack 0
   295   000001                     	ds	42
   296   00002B                     MAX30100_read_temp_data@temp_frac:
   297                           	callstack 0
   298   00002B                     	ds	1
   299   00002C                     MAX30100_read_temp_data@temp_int2:
   300                           	callstack 0
   301   00002C                     	ds	1
   302   00002D                     MAX30100_read_temp_data@temp_int1:
   303                           	callstack 0
   304   00002D                     	ds	1
   305   00002E                     MAX30100_enable_temp_read@mode_cfg_reg:
   306                           	callstack 0
   307   00002E                     	ds	1
   308   00002F                     _eusart1RxLastError:
   309                           	callstack 0
   310   00002F                     	ds	1
   311                           
   312                           	psect	bssBANK0
   313   0000E9                     __pbssBANK0:
   314                           	callstack 0
   315   0000E9                     srednja_vrednost@suma:
   316                           	callstack 0
   317   0000E9                     	ds	4
   318   0000ED                     MAX30100_read_led_data@tmp_reg:
   319                           	callstack 0
   320   0000ED                     	ds	4
   321                           
   322                           	psect	bssBANK1
   323   000100                     __pbssBANK1:
   324                           	callstack 0
   325   000100                     	ds	128
   326                           
   327                           	psect	bssBANK2
   328   000200                     __pbssBANK2:
   329                           	callstack 0
   330   000200                     	ds	128
   331                           
   332                           	psect	cstackBANK1
   333   000180                     __pcstackBANK1:
   334                           	callstack 0
   335   000180                     main@ir_niz:
   336                           	callstack 0
   337                           
   338                           ; 128 bytes @ 0x0
   339   000180                     	ds	128
   340                           
   341                           	psect	cstackBANK0
   342   000060                     __pcstackBANK0:
   343                           	callstack 0
   344   000060                     main@red_niz:
   345                           	callstack 0
   346                           
   347                           ; 128 bytes @ 0x0
   348   000060                     	ds	128
   349                           
   350                           	psect	cstackCOMRAM
   351   000030                     __pcstackCOMRAM:
   352                           	callstack 0
   353   000030                     ?_srednja_vrednost:
   354                           	callstack 0
   355   000030                     EUSART1_Write@txData:
   356                           	callstack 0
   357   000030                     I2C1_Open@address:
   358                           	callstack 0
   359   000030                     I2C1_Close@returnValue:
   360                           	callstack 0
   361   000030                     I2C1_MasterSendTxData@data:
   362                           	callstack 0
   363   000030                     I2C1_SetBuffer@buffer:
   364                           	callstack 0
   365   000030                     srednja_vrednost@niz:
   366                           	callstack 0
   367   000030                     EUSART1_SetFramingErrorHandler@interruptHandler:
   368                           	callstack 0
   369   000030                     EUSART1_SetOverrunErrorHandler@interruptHandler:
   370                           	callstack 0
   371   000030                     EUSART1_SetErrorHandler@interruptHandler:
   372                           	callstack 0
   373   000030                     I2C1_SetCallback@cb:
   374                           	callstack 0
   375                           
   376                           ; 3 bytes @ 0x0
   377   000030                     	ds	1
   378   000031                     I2C1_Open@returnValue:
   379                           	callstack 0
   380                           
   381                           ; 1 bytes @ 0x1
   382   000031                     	ds	1
   383   000032                     srednja_vrednost@indeks:
   384                           	callstack 0
   385   000032                     I2C1_SetBuffer@bufferSize:
   386                           	callstack 0
   387                           
   388                           ; 2 bytes @ 0x2
   389   000032                     	ds	1
   390   000033                     ??_srednja_vrednost:
   391   000033                     I2C1_SetCallback@ptr:
   392                           	callstack 0
   393                           
   394                           ; 2 bytes @ 0x3
   395   000033                     	ds	1
   396   000034                     
   397                           ; 1 bytes @ 0x4
   398   000034                     	ds	1
   399   000035                     I2C1_SetCallback@idx:
   400                           	callstack 0
   401                           
   402                           ; 1 bytes @ 0x5
   403   000035                     	ds	1
   404   000036                     I2C1_SetDataCompleteCallback@cb:
   405                           	callstack 0
   406   000036                     I2C1_SetAddressNackCallback@cb:
   407                           	callstack 0
   408                           
   409                           ; 3 bytes @ 0x6
   410   000036                     	ds	3
   411   000039                     I2C1_SetDataCompleteCallback@ptr:
   412                           	callstack 0
   413   000039                     I2C1_SetAddressNackCallback@ptr:
   414                           	callstack 0
   415                           
   416                           ; 2 bytes @ 0x9
   417   000039                     	ds	2
   418   00003B                     srednja_vrednost@najstariji_indeks:
   419                           	callstack 0
   420   00003B                     rd1RegCompleteHandler@ptr:
   421                           	callstack 0
   422   00003B                     rd2RegCompleteHandler@ptr:
   423                           	callstack 0
   424   00003B                     wr1RegCompleteHandler@ptr:
   425                           	callstack 0
   426   00003B                     wr2RegCompleteHandler@ptr:
   427                           	callstack 0
   428   00003B                     rdBlkRegCompleteHandler@ptr:
   429                           	callstack 0
   430   00003B                     I2C1_CallbackReturnReset@funPtr:
   431                           	callstack 0
   432                           
   433                           ; 2 bytes @ 0xB
   434   00003B                     	ds	2
   435   00003D                     ??_I2C1_DO_TX:
   436   00003D                     ??_I2C1_DO_RX:
   437   00003D                     ??_I2C1_DO_TX_EMPTY:
   438   00003D                     ??_I2C1_DO_ADDRESS_NACK:
   439   00003D                     
   440                           ; 1 bytes @ 0xD
   441   00003D                     	ds	2
   442   00003F                     I2C1_MasterOperation@read:
   443                           	callstack 0
   444                           
   445                           ; 1 bytes @ 0xF
   446   00003F                     	ds	1
   447   000040                     I2C1_MasterOperation@returnValue:
   448                           	callstack 0
   449                           
   450                           ; 1 bytes @ 0x10
   451   000040                     	ds	1
   452   000041                     I2C1_Write1ByteRegister@reg:
   453                           	callstack 0
   454   000041                     I2C1_ReadDataBlock@reg:
   455                           	callstack 0
   456                           
   457                           ; 1 bytes @ 0x11
   458   000041                     	ds	1
   459   000042                     I2C1_Write1ByteRegister@data:
   460                           	callstack 0
   461   000042                     I2C1_ReadDataBlock@data:
   462                           	callstack 0
   463                           
   464                           ; 2 bytes @ 0x12
   465   000042                     	ds	1
   466   000043                     I2C1_Write1ByteRegister@address:
   467                           	callstack 0
   468                           
   469                           ; 1 bytes @ 0x13
   470   000043                     	ds	1
   471   000044                     MAX30100_init@red_led_current:
   472                           	callstack 0
   473   000044                     I2C1_ReadDataBlock@len:
   474                           	callstack 0
   475                           
   476                           ; 2 bytes @ 0x14
   477   000044                     	ds	1
   478   000045                     MAX30100_init@ir_led_current:
   479                           	callstack 0
   480                           
   481                           ; 1 bytes @ 0x15
   482   000045                     	ds	1
   483   000046                     I2C1_ReadDataBlock@address:
   484                           	callstack 0
   485   000046                     MAX30100_init@sample_rate:
   486                           	callstack 0
   487                           
   488                           ; 1 bytes @ 0x16
   489   000046                     	ds	1
   490   000047                     MAX30100_init@pulse_width:
   491                           	callstack 0
   492   000047                     I2C1_ReadDataBlock@bufferBlock:
   493                           	callstack 0
   494                           
   495                           ; 4 bytes @ 0x17
   496   000047                     	ds	1
   497   000048                     MAX30100_init@mode:
   498                           	callstack 0
   499                           
   500                           ; 1 bytes @ 0x18
   501   000048                     	ds	1
   502   000049                     MAX30100_init@i_data:
   503                           	callstack 0
   504                           
   505                           ; 1 bytes @ 0x19
   506   000049                     	ds	1
   507   00004A                     MAX30100_init@spo2_data:
   508                           	callstack 0
   509                           
   510                           ; 1 bytes @ 0x1A
   511   00004A                     	ds	1
   512   00004B                     MAX30100_read_led_data@sens:
   513                           	callstack 0
   514                           
   515                           ; 2 bytes @ 0x1B
   516   00004B                     	ds	2
   517   00004D                     ??_MAX30100_read_led_data:
   518                           
   519                           ; 1 bytes @ 0x1D
   520   00004D                     	ds	2
   521   00004F                     ??_main:
   522                           
   523                           ; 1 bytes @ 0x1F
   524   00004F                     	ds	2
   525   000051                     _main$1428:
   526                           	callstack 0
   527                           
   528                           ; 2 bytes @ 0x21
   529   000051                     	ds	2
   530   000053                     main@ir_srednje:
   531                           	callstack 0
   532                           
   533                           ; 2 bytes @ 0x23
   534   000053                     	ds	2
   535   000055                     main@senzor:
   536                           	callstack 0
   537                           
   538                           ; 8 bytes @ 0x25
   539   000055                     	ds	8
   540   00005D                     main@i:
   541                           	callstack 0
   542                           
   543                           ; 1 bytes @ 0x2D
   544   00005D                     	ds	1
   545                           
   546 ;;
   547 ;;Main: autosize = 0, tempsize = 2, incstack = 0, save=0
   548 ;;
   549 ;; *************** function _main *****************
   550 ;; Defined at:
   551 ;;		line 66 in file "main.c"
   552 ;; Parameters:    Size  Location     Type
   553 ;;		None
   554 ;; Auto vars:     Size  Location     Type
   555 ;;  ir_niz        128    0[BANK1 ] unsigned short [64]
   556 ;;  red_niz       128    0[BANK0 ] unsigned short [64]
   557 ;;  senzor          8   37[COMRAM] struct .
   558 ;;  ir_srednje      2   35[COMRAM] unsigned short 
   559 ;;  red_srednje     2    0        unsigned short 
   560 ;;  i               1   45[COMRAM] unsigned char 
   561 ;; Return value:  Size  Location     Type
   562 ;;                  1    wreg      void 
   563 ;; Registers used:
   564 ;;		wreg, fsr2l, fsr2h, status,2, status,0, pcl, pclath, pclatu, tosl, tblptrl, tblptrh, tblptru, prodl, prodh, cstack
   565 ;; Tracked objects:
   566 ;;		On entry : 0/0
   567 ;;		On exit  : 0/0
   568 ;;		Unchanged: 0/0
   569 ;; Data sizes:     COMRAM   BANK0   BANK1   BANK2   BANK3   BANK4   BANK5   BANK6   BANK7   BANK8   BANK9  BANK10  BANK1
      +1  BANK12  BANK13  BANK14  BANK15
   570 ;;      Params:         0       0       0       0       0       0       0       0       0       0       0       0       
      +0       0       0       0       0
   571 ;;      Locals:        13     128     128       0       0       0       0       0       0       0       0       0       
      +0       0       0       0       0
   572 ;;      Temps:          2       0       0       0       0       0       0       0       0       0       0       0       
      +0       0       0       0       0
   573 ;;      Totals:        15     128     128       0       0       0       0       0       0       0       0       0       
      +0       0       0       0       0
   574 ;;Total ram usage:      271 bytes
   575 ;; Hardware stack levels required when called: 10
   576 ;; This function calls:
   577 ;;		_EUSART1_Write
   578 ;;		_MAX30100_FIFO_init
   579 ;;		_MAX30100_init
   580 ;;		_MAX30100_read_led_data
   581 ;;		_SYSTEM_Initialize
   582 ;;		_srednja_vrednost
   583 ;; This function is called by:
   584 ;;		Startup code after reset
   585 ;; This function uses a non-reentrant model
   586 ;;
   587                           
   588                           	psect	text0
   589   001032                     __ptext0:
   590                           	callstack 0
   591   001032                     _main:
   592                           	callstack 21
   593   001032                     
   594                           ;main.c: 68:     uint8_t i=0;
   595   001032  0E00               	movlw	0
   596   001034  6E5D               	movwf	main@i^0,c
   597   001036                     
   598                           ;main.c: 69:     MAX30100_sens_t senzor;;main.c: 70:     uint16_t red_niz[64]={0};
   599   001036  EE20  F060         	lfsr	2,main@red_niz
   600   00103A  0E7F               	movlw	127
   601   00103C                     u861:
   602   00103C  6ADE               	clrf	postinc2,c
   603   00103E  06E8               	decf	wreg,f,c
   604   001040  E2FD               	bc	u861
   605   001042                     
   606                           ;main.c: 71:     uint16_t ir_niz[64]={0};
   607   001042  EE21  F080         	lfsr	2,main@ir_niz
   608   001046  0E7F               	movlw	127
   609   001048                     u871:
   610   001048  6ADE               	clrf	postinc2,c
   611   00104A  06E8               	decf	wreg,f,c
   612   00104C  E2FD               	bc	u871
   613                           
   614                           ;main.c: 73:     uint16_t ir_srednje=0;
   615   00104E  0E00               	movlw	0
   616   001050  6E54               	movwf	(main@ir_srednje+1)^0,c
   617   001052  0E00               	movlw	0
   618   001054  6E53               	movwf	main@ir_srednje^0,c
   619   001056                     
   620                           ;main.c: 75:     SYSTEM_Initialize();
   621   001056  EC6C  F00D         	call	_SYSTEM_Initialize	;wreg free
   622   00105A                     
   623                           ;main.c: 77:     MAX30100_init(MAX30100_MODE_SPO2_HR, MAX30100_LED_CURRENT_27_1mA, MAX30
      +                          100_LED_CURRENT_50mA, MAX30100_SAMPLING_RATE_100Hz, MAX30100_PULSE_WIDTH_1600uS_ADC_16);
   624   00105A  0E08               	movlw	8
   625   00105C  6E44               	movwf	MAX30100_init@red_led_current^0,c
   626   00105E  0E0F               	movlw	15
   627   001060  6E45               	movwf	MAX30100_init@ir_led_current^0,c
   628   001062  0E01               	movlw	1
   629   001064  6E46               	movwf	MAX30100_init@sample_rate^0,c
   630   001066  0E03               	movlw	3
   631   001068  6E47               	movwf	MAX30100_init@pulse_width^0,c
   632   00106A  0E03               	movlw	3
   633   00106C  EC31  F00C         	call	_MAX30100_init
   634   001070                     
   635                           ;main.c: 78:     MAX30100_FIFO_init();
   636   001070  ECCC  F00C         	call	_MAX30100_FIFO_init	;wreg free
   637   001074                     l2795:
   638                           
   639                           ;main.c: 81:     {;main.c: 82:         MAX30100_read_led_data(&senzor);
   640   001074  0E55               	movlw	low main@senzor
   641   001076  6E4B               	movwf	MAX30100_read_led_data@sens^0,c
   642   001078  0E00               	movlw	high main@senzor
   643   00107A  6E4C               	movwf	(MAX30100_read_led_data@sens+1)^0,c
   644   00107C  EC0D  F00B         	call	_MAX30100_read_led_data	;wreg free
   645   001080                     
   646                           ;main.c: 83:         red_niz[i] = senzor.red_led;
   647   001080  505D               	movf	main@i^0,w,c
   648   001082  0D02               	mullw	2
   649   001084  0E60               	movlw	low main@red_niz
   650   001086  24F3               	addwf	243,w,c
   651   001088  6ED9               	movwf	fsr2l,c
   652   00108A  0E00               	movlw	high main@red_niz
   653   00108C  20F4               	addwfc	prodh,w,c
   654   00108E  6EDA               	movwf	fsr2h,c
   655   001090  C057  FFDE         	movff	main@senzor+2,postinc2
   656   001094  C058  FFDD         	movff	main@senzor+3,postdec2
   657   001098                     
   658                           ;main.c: 84:         ir_niz[i] = senzor.ir_led;
   659   001098  505D               	movf	main@i^0,w,c
   660   00109A  0D02               	mullw	2
   661   00109C  0E80               	movlw	low main@ir_niz
   662   00109E  24F3               	addwf	243,w,c
   663   0010A0  6ED9               	movwf	fsr2l,c
   664   0010A2  0E01               	movlw	high main@ir_niz
   665   0010A4  20F4               	addwfc	prodh,w,c
   666   0010A6  6EDA               	movwf	fsr2h,c
   667   0010A8  C055  FFDE         	movff	main@senzor,postinc2
   668   0010AC  C056  FFDD         	movff	main@senzor+1,postdec2
   669   0010B0  0E60               	movlw	low main@red_niz
   670   0010B2  6E30               	movwf	srednja_vrednost@niz^0,c
   671   0010B4  0E00               	movlw	high main@red_niz
   672   0010B6  6E31               	movwf	(srednja_vrednost@niz+1)^0,c
   673   0010B8  C05D  F032         	movff	main@i,srednja_vrednost@indeks
   674   0010BC  EC0E  F009         	call	_srednja_vrednost	;wreg free
   675   0010C0                     
   676                           ;main.c: 87:         ir_srednje = ir_niz[i] - srednja_vrednost(ir_niz, i);
   677   0010C0  0E80               	movlw	low main@ir_niz
   678   0010C2  6E30               	movwf	srednja_vrednost@niz^0,c
   679   0010C4  0E01               	movlw	high main@ir_niz
   680   0010C6  6E31               	movwf	(srednja_vrednost@niz+1)^0,c
   681   0010C8  C05D  F032         	movff	main@i,srednja_vrednost@indeks
   682   0010CC  EC0E  F009         	call	_srednja_vrednost	;wreg free
   683   0010D0  505D               	movf	main@i^0,w,c
   684   0010D2  0D02               	mullw	2
   685   0010D4  0E80               	movlw	low main@ir_niz
   686   0010D6  24F3               	addwf	243,w,c
   687   0010D8  6ED9               	movwf	fsr2l,c
   688   0010DA  0E01               	movlw	high main@ir_niz
   689   0010DC  20F4               	addwfc	prodh,w,c
   690   0010DE  6EDA               	movwf	fsr2h,c
   691   0010E0  CFDE F04F          	movff	postinc2,??_main
   692   0010E4  CFDD F050          	movff	postdec2,??_main+1
   693   0010E8  5030               	movf	?_srednja_vrednost^0,w,c
   694   0010EA  5C4F               	subwf	??_main^0,w,c
   695   0010EC  6E53               	movwf	main@ir_srednje^0,c
   696   0010EE  5031               	movf	(?_srednja_vrednost+1)^0,w,c
   697   0010F0  5850               	subwfb	(??_main+1)^0,w,c
   698   0010F2  6E54               	movwf	(main@ir_srednje+1)^0,c
   699   0010F4                     
   700                           ;main.c: 89:         EUSART1_Write(0x03);
   701   0010F4  0E03               	movlw	3
   702   0010F6  EC43  F00D         	call	_EUSART1_Write
   703   0010FA                     
   704                           ;main.c: 90:         EUSART1_Write((uint8_t)senzor.ir_led);
   705   0010FA  5055               	movf	main@senzor^0,w,c
   706   0010FC  EC43  F00D         	call	_EUSART1_Write
   707   001100                     
   708                           ;main.c: 91:         EUSART1_Write((uint8_t)(senzor.ir_led>>8));
   709   001100  5056               	movf	(main@senzor+1)^0,w,c
   710   001102  EC43  F00D         	call	_EUSART1_Write
   711   001106                     
   712                           ;main.c: 93:         EUSART1_Write((uint8_t)ir_srednje);
   713   001106  5053               	movf	main@ir_srednje^0,w,c
   714   001108  EC43  F00D         	call	_EUSART1_Write
   715   00110C                     
   716                           ;main.c: 94:         EUSART1_Write((uint8_t)(ir_srednje>>8));
   717   00110C  5054               	movf	(main@ir_srednje+1)^0,w,c
   718   00110E  EC43  F00D         	call	_EUSART1_Write
   719   001112                     
   720                           ;main.c: 102:         EUSART1_Write(0xFC);
   721   001112  0EFC               	movlw	252
   722   001114  EC43  F00D         	call	_EUSART1_Write
   723   001118                     
   724                           ;main.c: 105:         _delay((unsigned long)((10)*(64000000/4000.0)));
   725   001118  0ED0               	movlw	208
   726   00111A  6E4F               	movwf	??_main^0,c
   727   00111C  0ECA               	movlw	202
   728   00111E                     u897:
   729   00111E  2EE8               	decfsz	wreg,f,c
   730   001120  D7FE               	bra	u897
   731   001122  2E4F               	decfsz	??_main^0,f,c
   732   001124  D7FC               	bra	u897
   733   001126                     
   734                           ;main.c: 106:         i++;
   735   001126  2A5D               	incf	main@i^0,f,c
   736   001128                     
   737                           ;main.c: 107:         i = (i==64) ? 0:i;
   738   001128  0E40               	movlw	64
   739   00112A  185D               	xorwf	main@i^0,w,c
   740   00112C  B4D8               	btfsc	status,2,c
   741   00112E  EF9B  F008         	goto	u881
   742   001132  EF9D  F008         	goto	u880
   743   001136                     u881:
   744   001136  EFA2  F008         	goto	l2825
   745   00113A                     u880:
   746   00113A  C05D  F051         	movff	main@i,_main$1428
   747   00113E  6A52               	clrf	(_main$1428+1)^0,c
   748   001140  EFA6  F008         	goto	l2827
   749   001144                     l2825:
   750   001144  0E00               	movlw	0
   751   001146  6E52               	movwf	(_main$1428+1)^0,c
   752   001148  0E00               	movlw	0
   753   00114A  6E51               	movwf	_main$1428^0,c
   754   00114C                     l2827:
   755   00114C  C051  F05D         	movff	_main$1428,main@i
   756   001150  EF3A  F008         	goto	l2795
   757   001154  EF00  F000         	goto	start
   758   001158                     __end_of_main:
   759                           	callstack 0
   760                           
   761 ;; *************** function _srednja_vrednost *****************
   762 ;; Defined at:
   763 ;;		line 50 in file "main.c"
   764 ;; Parameters:    Size  Location     Type
   765 ;;  niz             2    0[COMRAM] PTR unsigned short 
   766 ;;		 -> main@ir_niz(128), main@red_niz(128), 
   767 ;;  indeks          1    2[COMRAM] unsigned char 
   768 ;; Auto vars:     Size  Location     Type
   769 ;;  najstariji_i    1   11[COMRAM] unsigned char 
   770 ;; Return value:  Size  Location     Type
   771 ;;                  2    0[COMRAM] unsigned short 
   772 ;; Registers used:
   773 ;;		wreg, fsr2l, fsr2h, status,2, status,0, prodl, prodh
   774 ;; Tracked objects:
   775 ;;		On entry : 0/0
   776 ;;		On exit  : 0/0
   777 ;;		Unchanged: 0/0
   778 ;; Data sizes:     COMRAM   BANK0   BANK1   BANK2   BANK3   BANK4   BANK5   BANK6   BANK7   BANK8   BANK9  BANK10  BANK1
      +1  BANK12  BANK13  BANK14  BANK15
   779 ;;      Params:         3       0       0       0       0       0       0       0       0       0       0       0       
      +0       0       0       0       0
   780 ;;      Locals:         1       0       0       0       0       0       0       0       0       0       0       0       
      +0       0       0       0       0
   781 ;;      Temps:          8       0       0       0       0       0       0       0       0       0       0       0       
      +0       0       0       0       0
   782 ;;      Totals:        12       0       0       0       0       0       0       0       0       0       0       0       
      +0       0       0       0       0
   783 ;;Total ram usage:       12 bytes
   784 ;; Hardware stack levels used: 1
   785 ;; This function calls:
   786 ;;		Nothing
   787 ;; This function is called by:
   788 ;;		_main
   789 ;; This function uses a non-reentrant model
   790 ;;
   791                           
   792                           	psect	text1
   793   00121C                     __ptext1:
   794                           	callstack 0
   795   00121C                     _srednja_vrednost:
   796                           	callstack 30
   797   00121C                     
   798                           ;main.c: 50: uint16_t srednja_vrednost(uint16_t *niz, uint8_t indeks);main.c: 51: {;main
      +                          .c: 52:     static uint32_t suma=0;;main.c: 53:     uint8_t najstariji_indeks;;main.c: 5
      +                          5:     if(indeks == 63)
   799   00121C  0E3F               	movlw	63
   800   00121E  1832               	xorwf	srednja_vrednost@indeks^0,w,c
   801   001220  A4D8               	btfss	status,2,c
   802   001222  EF15  F009         	goto	u741
   803   001226  EF17  F009         	goto	u740
   804   00122A                     u741:
   805   00122A  EF1B  F009         	goto	l2667
   806   00122E                     u740:
   807   00122E                     
   808                           ;main.c: 56:         najstariji_indeks = 0;
   809   00122E  0E00               	movlw	0
   810   001230  6E3B               	movwf	srednja_vrednost@najstariji_indeks^0,c
   811   001232  EF1D  F009         	goto	l2669
   812   001236                     l2667:
   813                           
   814                           ;main.c: 58:         najstariji_indeks = indeks+1;
   815   001236  2832               	incf	srednja_vrednost@indeks^0,w,c
   816   001238  6E3B               	movwf	srednja_vrednost@najstariji_indeks^0,c
   817   00123A                     l2669:
   818                           
   819                           ;main.c: 60:     suma += niz[indeks];
   820   00123A  5032               	movf	srednja_vrednost@indeks^0,w,c
   821   00123C  0D02               	mullw	2
   822   00123E  CFF3 F033          	movff	prodl,??_srednja_vrednost
   823   001242  CFF4 F034          	movff	prodh,??_srednja_vrednost+1
   824   001246  5033               	movf	??_srednja_vrednost^0,w,c
   825   001248  2430               	addwf	srednja_vrednost@niz^0,w,c
   826   00124A  6ED9               	movwf	fsr2l,c
   827   00124C  5034               	movf	(??_srednja_vrednost+1)^0,w,c
   828   00124E  2031               	addwfc	(srednja_vrednost@niz+1)^0,w,c
   829   001250  6EDA               	movwf	fsr2h,c
   830   001252  CFDE F035          	movff	postinc2,??_srednja_vrednost+2
   831   001256  CFDD F036          	movff	postdec2,??_srednja_vrednost+3
   832   00125A  5035               	movf	(??_srednja_vrednost+2)^0,w,c
   833   00125C  0100               	movlb	0	; () banked
   834   00125E  27E9               	addwf	srednja_vrednost@suma& (0+255),f,b
   835   001260  5036               	movf	(??_srednja_vrednost+3)^0,w,c
   836   001262  23EA               	addwfc	(srednja_vrednost@suma+1)& (0+255),f,b
   837   001264  0E00               	movlw	0
   838   001266  23EB               	addwfc	(srednja_vrednost@suma+2)& (0+255),f,b
   839   001268  0E00               	movlw	0
   840   00126A  23EC               	addwfc	(srednja_vrednost@suma+3)& (0+255),f,b
   841   00126C                     
   842                           ; BSR set to: 0
   843                           ;main.c: 61:     suma -= niz[najstariji_indeks];
   844   00126C  503B               	movf	srednja_vrednost@najstariji_indeks^0,w,c
   845   00126E  0D02               	mullw	2
   846   001270  CFF3 F033          	movff	prodl,??_srednja_vrednost
   847   001274  CFF4 F034          	movff	prodh,??_srednja_vrednost+1
   848   001278  5033               	movf	??_srednja_vrednost^0,w,c
   849   00127A  2430               	addwf	srednja_vrednost@niz^0,w,c
   850   00127C  6ED9               	movwf	fsr2l,c
   851   00127E  5034               	movf	(??_srednja_vrednost+1)^0,w,c
   852   001280  2031               	addwfc	(srednja_vrednost@niz+1)^0,w,c
   853   001282  6EDA               	movwf	fsr2h,c
   854   001284  CFDE F035          	movff	postinc2,??_srednja_vrednost+2
   855   001288  CFDD F036          	movff	postdec2,??_srednja_vrednost+3
   856   00128C  5035               	movf	(??_srednja_vrednost+2)^0,w,c
   857   00128E  6E37               	movwf	(??_srednja_vrednost+4)^0,c
   858   001290  5036               	movf	(??_srednja_vrednost+3)^0,w,c
   859   001292  6E38               	movwf	(??_srednja_vrednost+5)^0,c
   860   001294  6A39               	clrf	(??_srednja_vrednost+6)^0,c
   861   001296  6A3A               	clrf	(??_srednja_vrednost+7)^0,c
   862   001298  5037               	movf	(??_srednja_vrednost+4)^0,w,c
   863   00129A  5FE9               	subwf	srednja_vrednost@suma& (0+255),f,b
   864   00129C  5038               	movf	(??_srednja_vrednost+5)^0,w,c
   865   00129E  5BEA               	subwfb	(srednja_vrednost@suma+1)& (0+255),f,b
   866   0012A0  5039               	movf	(??_srednja_vrednost+6)^0,w,c
   867   0012A2  5BEB               	subwfb	(srednja_vrednost@suma+2)& (0+255),f,b
   868   0012A4  503A               	movf	(??_srednja_vrednost+7)^0,w,c
   869   0012A6  5BEC               	subwfb	(srednja_vrednost@suma+3)& (0+255),f,b
   870                           
   871                           ;main.c: 63:     return (uint16_t)(suma>>6);
   872   0012A8  C0E9  F033         	movff	srednja_vrednost@suma,??_srednja_vrednost
   873   0012AC  C0EA  F034         	movff	srednja_vrednost@suma+1,??_srednja_vrednost+1
   874   0012B0  C0EB  F035         	movff	srednja_vrednost@suma+2,??_srednja_vrednost+2
   875   0012B4  C0EC  F036         	movff	srednja_vrednost@suma+3,??_srednja_vrednost+3
   876   0012B8  0E07               	movlw	7
   877   0012BA  EF64  F009         	goto	u750
   878   0012BE                     u755:
   879   0012BE  90D8               	bcf	status,0,c
   880   0012C0  3236               	rrcf	(??_srednja_vrednost+3)^0,f,c
   881   0012C2  3235               	rrcf	(??_srednja_vrednost+2)^0,f,c
   882   0012C4  3234               	rrcf	(??_srednja_vrednost+1)^0,f,c
   883   0012C6  3233               	rrcf	??_srednja_vrednost^0,f,c
   884   0012C8                     u750:
   885   0012C8  2EE8               	decfsz	wreg,f,c
   886   0012CA  EF5F  F009         	goto	u755
   887   0012CE  C033  F030         	movff	??_srednja_vrednost,?_srednja_vrednost
   888   0012D2  C034  F031         	movff	??_srednja_vrednost+1,?_srednja_vrednost+1
   889   0012D6                     
   890                           ; BSR set to: 0
   891   0012D6  0012               	return		;funcret
   892   0012D8                     __end_of_srednja_vrednost:
   893                           	callstack 0
   894                           
   895 ;; *************** function _SYSTEM_Initialize *****************
   896 ;; Defined at:
   897 ;;		line 50 in file "mcc_generated_files/mcc.c"
   898 ;; Parameters:    Size  Location     Type
   899 ;;		None
   900 ;; Auto vars:     Size  Location     Type
   901 ;;		None
   902 ;; Return value:  Size  Location     Type
   903 ;;                  1    wreg      void 
   904 ;; Registers used:
   905 ;;		wreg, status,2, status,0, cstack
   906 ;; Tracked objects:
   907 ;;		On entry : 0/0
   908 ;;		On exit  : 0/0
   909 ;;		Unchanged: 0/0
   910 ;; Data sizes:     COMRAM   BANK0   BANK1   BANK2   BANK3   BANK4   BANK5   BANK6   BANK7   BANK8   BANK9  BANK10  BANK1
      +1  BANK12  BANK13  BANK14  BANK15
   911 ;;      Params:         0       0       0       0       0       0       0       0       0       0       0       0       
      +0       0       0       0       0
   912 ;;      Locals:         0       0       0       0       0       0       0       0       0       0       0       0       
      +0       0       0       0       0
   913 ;;      Temps:          0       0       0       0       0       0       0       0       0       0       0       0       
      +0       0       0       0       0
   914 ;;      Totals:         0       0       0       0       0       0       0       0       0       0       0       0       
      +0       0       0       0       0
   915 ;;Total ram usage:        0 bytes
   916 ;; Hardware stack levels used: 1
   917 ;; Hardware stack levels required when called: 2
   918 ;; This function calls:
   919 ;;		_EUSART1_Initialize
   920 ;;		_I2C1_Initialize
   921 ;;		_OSCILLATOR_Initialize
   922 ;;		_PIN_MANAGER_Initialize
   923 ;; This function is called by:
   924 ;;		_main
   925 ;; This function uses a non-reentrant model
   926 ;;
   927                           
   928                           	psect	text2
   929   001AD8                     __ptext2:
   930                           	callstack 0
   931   001AD8                     _SYSTEM_Initialize:
   932                           	callstack 28
   933   001AD8                     
   934                           ;mcc_generated_files/mcc.c: 53:     I2C1_Initialize();
   935   001AD8  EC58  F00D         	call	_I2C1_Initialize	;wreg free
   936                           
   937                           ;mcc_generated_files/mcc.c: 54:     PIN_MANAGER_Initialize();
   938   001ADC  EC11  F00C         	call	_PIN_MANAGER_Initialize	;wreg free
   939                           
   940                           ;mcc_generated_files/mcc.c: 55:     OSCILLATOR_Initialize();
   941   001AE0  EC4E  F00D         	call	_OSCILLATOR_Initialize	;wreg free
   942   001AE4                     
   943                           ;mcc_generated_files/mcc.c: 56:     EUSART1_Initialize();
   944   001AE4  ECA9  F00B         	call	_EUSART1_Initialize	;wreg free
   945   001AE8  0012               	return		;funcret
   946   001AEA                     __end_of_SYSTEM_Initialize:
   947                           	callstack 0
   948                           
   949 ;; *************** function _PIN_MANAGER_Initialize *****************
   950 ;; Defined at:
   951 ;;		line 55 in file "mcc_generated_files/pin_manager.c"
   952 ;; Parameters:    Size  Location     Type
   953 ;;		None
   954 ;; Auto vars:     Size  Location     Type
   955 ;;		None
   956 ;; Return value:  Size  Location     Type
   957 ;;                  1    wreg      void 
   958 ;; Registers used:
   959 ;;		wreg, status,2
   960 ;; Tracked objects:
   961 ;;		On entry : 0/0
   962 ;;		On exit  : 0/0
   963 ;;		Unchanged: 0/0
   964 ;; Data sizes:     COMRAM   BANK0   BANK1   BANK2   BANK3   BANK4   BANK5   BANK6   BANK7   BANK8   BANK9  BANK10  BANK1
      +1  BANK12  BANK13  BANK14  BANK15
   965 ;;      Params:         0       0       0       0       0       0       0       0       0       0       0       0       
      +0       0       0       0       0
   966 ;;      Locals:         0       0       0       0       0       0       0       0       0       0       0       0       
      +0       0       0       0       0
   967 ;;      Temps:          0       0       0       0       0       0       0       0       0       0       0       0       
      +0       0       0       0       0
   968 ;;      Totals:         0       0       0       0       0       0       0       0       0       0       0       0       
      +0       0       0       0       0
   969 ;;Total ram usage:        0 bytes
   970 ;; Hardware stack levels used: 1
   971 ;; This function calls:
   972 ;;		Nothing
   973 ;; This function is called by:
   974 ;;		_SYSTEM_Initialize
   975 ;; This function uses a non-reentrant model
   976 ;;
   977                           
   978                           	psect	text3
   979   001822                     __ptext3:
   980                           	callstack 0
   981   001822                     _PIN_MANAGER_Initialize:
   982                           	callstack 29
   983   001822                     
   984                           ;mcc_generated_files/pin_manager.c: 60:     LATE = 0x00;
   985   001822  0E00               	movlw	0
   986   001824  6E8D               	movwf	141,c	;volatile
   987                           
   988                           ;mcc_generated_files/pin_manager.c: 61:     LATD = 0x00;
   989   001826  0E00               	movlw	0
   990   001828  6E8C               	movwf	140,c	;volatile
   991                           
   992                           ;mcc_generated_files/pin_manager.c: 62:     LATA = 0x00;
   993   00182A  0E00               	movlw	0
   994   00182C  6E89               	movwf	137,c	;volatile
   995                           
   996                           ;mcc_generated_files/pin_manager.c: 63:     LATF = 0x00;
   997   00182E  0E00               	movlw	0
   998   001830  6E8E               	movwf	142,c	;volatile
   999                           
  1000                           ;mcc_generated_files/pin_manager.c: 64:     LATB = 0x00;
  1001   001832  0E00               	movlw	0
  1002   001834  6E8A               	movwf	138,c	;volatile
  1003                           
  1004                           ;mcc_generated_files/pin_manager.c: 65:     LATG = 0x00;
  1005   001836  0E00               	movlw	0
  1006   001838  6E8F               	movwf	143,c	;volatile
  1007                           
  1008                           ;mcc_generated_files/pin_manager.c: 66:     LATC = 0x00;
  1009   00183A  0E00               	movlw	0
  1010   00183C  6E8B               	movwf	139,c	;volatile
  1011                           
  1012                           ;mcc_generated_files/pin_manager.c: 67:     LATH = 0x00;
  1013   00183E  0E00               	movlw	0
  1014   001840  6E90               	movwf	144,c	;volatile
  1015   001842                     
  1016                           ;mcc_generated_files/pin_manager.c: 72:     TRISE = 0xFF;
  1017   001842  6896               	setf	150,c	;volatile
  1018                           
  1019                           ;mcc_generated_files/pin_manager.c: 73:     TRISF = 0xFE;
  1020   001844  0EFE               	movlw	254
  1021   001846  6E97               	movwf	151,c	;volatile
  1022   001848                     
  1023                           ;mcc_generated_files/pin_manager.c: 74:     TRISA = 0xFF;
  1024   001848  6892               	setf	146,c	;volatile
  1025                           
  1026                           ;mcc_generated_files/pin_manager.c: 75:     TRISG = 0x1F;
  1027   00184A  0E1F               	movlw	31
  1028   00184C  6E98               	movwf	152,c	;volatile
  1029   00184E                     
  1030                           ;mcc_generated_files/pin_manager.c: 76:     TRISB = 0xFF;
  1031   00184E  6893               	setf	147,c	;volatile
  1032   001850                     
  1033                           ;mcc_generated_files/pin_manager.c: 77:     TRISH = 0xFF;
  1034   001850  6899               	setf	153,c	;volatile
  1035                           
  1036                           ;mcc_generated_files/pin_manager.c: 78:     TRISC = 0xBF;
  1037   001852  0EBF               	movlw	191
  1038   001854  6E94               	movwf	148,c	;volatile
  1039   001856                     
  1040                           ;mcc_generated_files/pin_manager.c: 79:     TRISD = 0xFF;
  1041   001856  6895               	setf	149,c	;volatile
  1042   001858                     
  1043                           ;mcc_generated_files/pin_manager.c: 84:     ANCON0 = 0xFF;
  1044   001858  010F               	movlb	15	; () banked
  1045   00185A  6925               	setf	37,b	;volatile
  1046   00185C                     
  1047                           ; BSR set to: 15
  1048                           ;mcc_generated_files/pin_manager.c: 85:     ANCON1 = 0xFF;
  1049   00185C  6924               	setf	36,b	;volatile
  1050   00185E                     
  1051                           ; BSR set to: 15
  1052                           ;mcc_generated_files/pin_manager.c: 86:     ANCON2 = 0xFF;
  1053   00185E  6923               	setf	35,b	;volatile
  1054   001860                     
  1055                           ; BSR set to: 15
  1056   001860  0012               	return		;funcret
  1057   001862                     __end_of_PIN_MANAGER_Initialize:
  1058                           	callstack 0
  1059                           
  1060 ;; *************** function _OSCILLATOR_Initialize *****************
  1061 ;; Defined at:
  1062 ;;		line 59 in file "mcc_generated_files/mcc.c"
  1063 ;; Parameters:    Size  Location     Type
  1064 ;;		None
  1065 ;; Auto vars:     Size  Location     Type
  1066 ;;		None
  1067 ;; Return value:  Size  Location     Type
  1068 ;;                  1    wreg      void 
  1069 ;; Registers used:
  1070 ;;		wreg, status,2
  1071 ;; Tracked objects:
  1072 ;;		On entry : 0/0
  1073 ;;		On exit  : 0/0
  1074 ;;		Unchanged: 0/0
  1075 ;; Data sizes:     COMRAM   BANK0   BANK1   BANK2   BANK3   BANK4   BANK5   BANK6   BANK7   BANK8   BANK9  BANK10  BANK1
      +1  BANK12  BANK13  BANK14  BANK15
  1076 ;;      Params:         0       0       0       0       0       0       0       0       0       0       0       0       
      +0       0       0       0       0
  1077 ;;      Locals:         0       0       0       0       0       0       0       0       0       0       0       0       
      +0       0       0       0       0
  1078 ;;      Temps:          0       0       0       0       0       0       0       0       0       0       0       0       
      +0       0       0       0       0
  1079 ;;      Totals:         0       0       0       0       0       0       0       0       0       0       0       0       
      +0       0       0       0       0
  1080 ;;Total ram usage:        0 bytes
  1081 ;; Hardware stack levels used: 1
  1082 ;; This function calls:
  1083 ;;		Nothing
  1084 ;; This function is called by:
  1085 ;;		_SYSTEM_Initialize
  1086 ;; This function uses a non-reentrant model
  1087 ;;
  1088                           
  1089                           	psect	text4
  1090   001A9C                     __ptext4:
  1091                           	callstack 0
  1092   001A9C                     _OSCILLATOR_Initialize:
  1093                           	callstack 29
  1094   001A9C                     
  1095                           ;mcc_generated_files/mcc.c: 62:     OSCCON = 0x60;
  1096   001A9C  0E60               	movlw	96
  1097   001A9E  6ED3               	movwf	211,c	;volatile
  1098                           
  1099                           ;mcc_generated_files/mcc.c: 64:     OSCCON2 = 0x00;
  1100   001AA0  0E00               	movlw	0
  1101   001AA2  6E64               	movwf	100,c	;volatile
  1102                           
  1103                           ;mcc_generated_files/mcc.c: 66:     OSCTUNE = 0x00;
  1104   001AA4  0E00               	movlw	0
  1105   001AA6  6E9B               	movwf	155,c	;volatile
  1106                           
  1107                           ;mcc_generated_files/mcc.c: 68:     REFOCON = 0x00;
  1108   001AA8  0E00               	movlw	0
  1109   001AAA  010F               	movlb	15	; () banked
  1110   001AAC  6F2A               	movwf	42,b	;volatile
  1111   001AAE                     
  1112                           ; BSR set to: 15
  1113   001AAE  0012               	return		;funcret
  1114   001AB0                     __end_of_OSCILLATOR_Initialize:
  1115                           	callstack 0
  1116                           
  1117 ;; *************** function _I2C1_Initialize *****************
  1118 ;; Defined at:
  1119 ;;		line 167 in file "mcc_generated_files/i2c1_master.c"
  1120 ;; Parameters:    Size  Location     Type
  1121 ;;		None
  1122 ;; Auto vars:     Size  Location     Type
  1123 ;;		None
  1124 ;; Return value:  Size  Location     Type
  1125 ;;                  1    wreg      void 
  1126 ;; Registers used:
  1127 ;;		wreg, status,2
  1128 ;; Tracked objects:
  1129 ;;		On entry : 0/0
  1130 ;;		On exit  : 0/0
  1131 ;;		Unchanged: 0/0
  1132 ;; Data sizes:     COMRAM   BANK0   BANK1   BANK2   BANK3   BANK4   BANK5   BANK6   BANK7   BANK8   BANK9  BANK10  BANK1
      +1  BANK12  BANK13  BANK14  BANK15
  1133 ;;      Params:         0       0       0       0       0       0       0       0       0       0       0       0       
      +0       0       0       0       0
  1134 ;;      Locals:         0       0       0       0       0       0       0       0       0       0       0       0       
      +0       0       0       0       0
  1135 ;;      Temps:          0       0       0       0       0       0       0       0       0       0       0       0       
      +0       0       0       0       0
  1136 ;;      Totals:         0       0       0       0       0       0       0       0       0       0       0       0       
      +0       0       0       0       0
  1137 ;;Total ram usage:        0 bytes
  1138 ;; Hardware stack levels used: 1
  1139 ;; This function calls:
  1140 ;;		Nothing
  1141 ;; This function is called by:
  1142 ;;		_SYSTEM_Initialize
  1143 ;; This function uses a non-reentrant model
  1144 ;;
  1145                           
  1146                           	psect	text5
  1147   001AB0                     __ptext5:
  1148                           	callstack 0
  1149   001AB0                     _I2C1_Initialize:
  1150                           	callstack 29
  1151   001AB0                     
  1152                           ;mcc_generated_files/i2c1_master.c: 169:     SSP1STAT = 0x00;
  1153   001AB0  0E00               	movlw	0
  1154   001AB2  6EC7               	movwf	199,c	;volatile
  1155                           
  1156                           ;mcc_generated_files/i2c1_master.c: 170:     SSP1CON1 = 0x08;
  1157   001AB4  0E08               	movlw	8
  1158   001AB6  6EC6               	movwf	198,c	;volatile
  1159                           
  1160                           ;mcc_generated_files/i2c1_master.c: 171:     SSP1CON2 = 0x00;
  1161   001AB8  0E00               	movlw	0
  1162   001ABA  6EC5               	movwf	197,c	;volatile
  1163                           
  1164                           ;mcc_generated_files/i2c1_master.c: 172:     SSP1ADD = 0x9F;
  1165   001ABC  0E9F               	movlw	159
  1166   001ABE  6EC8               	movwf	200,c	;volatile
  1167   001AC0                     
  1168                           ;mcc_generated_files/i2c1_master.c: 173:     SSP1CON1bits.SSPEN = 0;
  1169   001AC0  9AC6               	bcf	198,5,c	;volatile
  1170   001AC2  0012               	return		;funcret
  1171   001AC4                     __end_of_I2C1_Initialize:
  1172                           	callstack 0
  1173                           
  1174 ;; *************** function _EUSART1_Initialize *****************
  1175 ;; Defined at:
  1176 ;;		line 66 in file "mcc_generated_files/eusart1.c"
  1177 ;; Parameters:    Size  Location     Type
  1178 ;;		None
  1179 ;; Auto vars:     Size  Location     Type
  1180 ;;		None
  1181 ;; Return value:  Size  Location     Type
  1182 ;;                  1    wreg      void 
  1183 ;; Registers used:
  1184 ;;		wreg, status,2, status,0, cstack
  1185 ;; Tracked objects:
  1186 ;;		On entry : 0/0
  1187 ;;		On exit  : 0/0
  1188 ;;		Unchanged: 0/0
  1189 ;; Data sizes:     COMRAM   BANK0   BANK1   BANK2   BANK3   BANK4   BANK5   BANK6   BANK7   BANK8   BANK9  BANK10  BANK1
      +1  BANK12  BANK13  BANK14  BANK15
  1190 ;;      Params:         0       0       0       0       0       0       0       0       0       0       0       0       
      +0       0       0       0       0
  1191 ;;      Locals:         0       0       0       0       0       0       0       0       0       0       0       0       
      +0       0       0       0       0
  1192 ;;      Temps:          0       0       0       0       0       0       0       0       0       0       0       0       
      +0       0       0       0       0
  1193 ;;      Totals:         0       0       0       0       0       0       0       0       0       0       0       0       
      +0       0       0       0       0
  1194 ;;Total ram usage:        0 bytes
  1195 ;; Hardware stack levels used: 1
  1196 ;; Hardware stack levels required when called: 1
  1197 ;; This function calls:
  1198 ;;		_EUSART1_SetErrorHandler
  1199 ;;		_EUSART1_SetFramingErrorHandler
  1200 ;;		_EUSART1_SetOverrunErrorHandler
  1201 ;; This function is called by:
  1202 ;;		_SYSTEM_Initialize
  1203 ;; This function uses a non-reentrant model
  1204 ;;
  1205                           
  1206                           	psect	text6
  1207   001752                     __ptext6:
  1208                           	callstack 0
  1209   001752                     _EUSART1_Initialize:
  1210                           	callstack 28
  1211   001752                     
  1212                           ;mcc_generated_files/eusart1.c: 71:     BAUDCON1 = 0x48;
  1213   001752  0E48               	movlw	72
  1214   001754  6E65               	movwf	101,c	;volatile
  1215                           
  1216                           ;mcc_generated_files/eusart1.c: 74:     RCSTA1 = 0x90;
  1217   001756  0E90               	movlw	144
  1218   001758  6EAB               	movwf	171,c	;volatile
  1219                           
  1220                           ;mcc_generated_files/eusart1.c: 77:     TXSTA1 = 0x24;
  1221   00175A  0E24               	movlw	36
  1222   00175C  6EAC               	movwf	172,c	;volatile
  1223                           
  1224                           ;mcc_generated_files/eusart1.c: 80:     SPBRG1 = 0x8A;
  1225   00175E  0E8A               	movlw	138
  1226   001760  6EAF               	movwf	175,c	;volatile
  1227                           
  1228                           ;mcc_generated_files/eusart1.c: 83:     SPBRGH1 = 0x00;
  1229   001762  0E00               	movlw	0
  1230   001764  6ED4               	movwf	212,c	;volatile
  1231   001766                     
  1232                           ;mcc_generated_files/eusart1.c: 86:     EUSART1_SetFramingErrorHandler(EUSART1_DefaultFr
      +                          amingErrorHandler);
  1233   001766  0E00               	movlw	0
  1234   001768  6E30               	movwf	EUSART1_SetFramingErrorHandler@interruptHandler^0,c
  1235   00176A  0E00               	movlw	0
  1236   00176C  6E31               	movwf	(EUSART1_SetFramingErrorHandler@interruptHandler+1)^0,c
  1237   00176E  0E00               	movlw	0
  1238   001770  6E32               	movwf	(EUSART1_SetFramingErrorHandler@interruptHandler+2)^0,c
  1239   001772  EC84  F00D         	call	_EUSART1_SetFramingErrorHandler	;wreg free
  1240   001776                     
  1241                           ;mcc_generated_files/eusart1.c: 87:     EUSART1_SetOverrunErrorHandler(EUSART1_DefaultOv
      +                          errunErrorHandler);
  1242   001776  0E00               	movlw	0
  1243   001778  6E30               	movwf	EUSART1_SetOverrunErrorHandler@interruptHandler^0,c
  1244   00177A  0E00               	movlw	0
  1245   00177C  6E31               	movwf	(EUSART1_SetOverrunErrorHandler@interruptHandler+1)^0,c
  1246   00177E  0E00               	movlw	0
  1247   001780  6E32               	movwf	(EUSART1_SetOverrunErrorHandler@interruptHandler+2)^0,c
  1248   001782  EC7D  F00D         	call	_EUSART1_SetOverrunErrorHandler	;wreg free
  1249   001786                     
  1250                           ;mcc_generated_files/eusart1.c: 88:     EUSART1_SetErrorHandler(EUSART1_DefaultErrorHand
      +                          ler);
  1251   001786  0E00               	movlw	0
  1252   001788  6E30               	movwf	EUSART1_SetErrorHandler@interruptHandler^0,c
  1253   00178A  0E00               	movlw	0
  1254   00178C  6E31               	movwf	(EUSART1_SetErrorHandler@interruptHandler+1)^0,c
  1255   00178E  0E00               	movlw	0
  1256   001790  6E32               	movwf	(EUSART1_SetErrorHandler@interruptHandler+2)^0,c
  1257   001792  EC8B  F00D         	call	_EUSART1_SetErrorHandler	;wreg free
  1258   001796                     
  1259                           ;mcc_generated_files/eusart1.c: 90:     eusart1RxLastError.status = 0;
  1260   001796  0E00               	movlw	0
  1261   001798  6E2F               	movwf	_eusart1RxLastError^0,c	;volatile
  1262   00179A  0012               	return		;funcret
  1263   00179C                     __end_of_EUSART1_Initialize:
  1264                           	callstack 0
  1265                           
  1266 ;; *************** function _EUSART1_SetOverrunErrorHandler *****************
  1267 ;; Defined at:
  1268 ;;		line 170 in file "mcc_generated_files/eusart1.c"
  1269 ;; Parameters:    Size  Location     Type
  1270 ;;  interruptHan    3    0[COMRAM] PTR FTN()void 
  1271 ;;		 -> EUSART1_DefaultOverrunErrorHandler(1), 
  1272 ;; Auto vars:     Size  Location     Type
  1273 ;;		None
  1274 ;; Return value:  Size  Location     Type
  1275 ;;                  1    wreg      void 
  1276 ;; Registers used:
  1277 ;;		wreg, status,2, status,0
  1278 ;; Tracked objects:
  1279 ;;		On entry : 0/0
  1280 ;;		On exit  : 0/0
  1281 ;;		Unchanged: 0/0
  1282 ;; Data sizes:     COMRAM   BANK0   BANK1   BANK2   BANK3   BANK4   BANK5   BANK6   BANK7   BANK8   BANK9  BANK10  BANK1
      +1  BANK12  BANK13  BANK14  BANK15
  1283 ;;      Params:         3       0       0       0       0       0       0       0       0       0       0       0       
      +0       0       0       0       0
  1284 ;;      Locals:         0       0       0       0       0       0       0       0       0       0       0       0       
      +0       0       0       0       0
  1285 ;;      Temps:          0       0       0       0       0       0       0       0       0       0       0       0       
      +0       0       0       0       0
  1286 ;;      Totals:         3       0       0       0       0       0       0       0       0       0       0       0       
      +0       0       0       0       0
  1287 ;;Total ram usage:        3 bytes
  1288 ;; Hardware stack levels used: 1
  1289 ;; This function calls:
  1290 ;;		Nothing
  1291 ;; This function is called by:
  1292 ;;		_EUSART1_Initialize
  1293 ;; This function uses a non-reentrant model
  1294 ;;
  1295                           
  1296                           	psect	text7
  1297   001AFA                     __ptext7:
  1298                           	callstack 0
  1299   001AFA                     _EUSART1_SetOverrunErrorHandler:
  1300                           	callstack 28
  1301   001AFA                     
  1302                           ;mcc_generated_files/eusart1.c: 171:     EUSART1_OverrunErrorHandler = interruptHandler;
  1303   001AFA  C030  F0E3         	movff	EUSART1_SetOverrunErrorHandler@interruptHandler,_EUSART1_OverrunErrorHandler
  1304   001AFE  C031  F0E4         	movff	EUSART1_SetOverrunErrorHandler@interruptHandler+1,_EUSART1_OverrunErrorHandler+1
  1305   001B02  C032  F0E5         	movff	EUSART1_SetOverrunErrorHandler@interruptHandler+2,_EUSART1_OverrunErrorHandler+2
  1306   001B06  0012               	return		;funcret
  1307   001B08                     __end_of_EUSART1_SetOverrunErrorHandler:
  1308                           	callstack 0
  1309                           
  1310 ;; *************** function _EUSART1_SetFramingErrorHandler *****************
  1311 ;; Defined at:
  1312 ;;		line 166 in file "mcc_generated_files/eusart1.c"
  1313 ;; Parameters:    Size  Location     Type
  1314 ;;  interruptHan    3    0[COMRAM] PTR FTN()void 
  1315 ;;		 -> EUSART1_DefaultFramingErrorHandler(1), 
  1316 ;; Auto vars:     Size  Location     Type
  1317 ;;		None
  1318 ;; Return value:  Size  Location     Type
  1319 ;;                  1    wreg      void 
  1320 ;; Registers used:
  1321 ;;		wreg, status,2, status,0
  1322 ;; Tracked objects:
  1323 ;;		On entry : 0/0
  1324 ;;		On exit  : 0/0
  1325 ;;		Unchanged: 0/0
  1326 ;; Data sizes:     COMRAM   BANK0   BANK1   BANK2   BANK3   BANK4   BANK5   BANK6   BANK7   BANK8   BANK9  BANK10  BANK1
      +1  BANK12  BANK13  BANK14  BANK15
  1327 ;;      Params:         3       0       0       0       0       0       0       0       0       0       0       0       
      +0       0       0       0       0
  1328 ;;      Locals:         0       0       0       0       0       0       0       0       0       0       0       0       
      +0       0       0       0       0
  1329 ;;      Temps:          0       0       0       0       0       0       0       0       0       0       0       0       
      +0       0       0       0       0
  1330 ;;      Totals:         3       0       0       0       0       0       0       0       0       0       0       0       
      +0       0       0       0       0
  1331 ;;Total ram usage:        3 bytes
  1332 ;; Hardware stack levels used: 1
  1333 ;; This function calls:
  1334 ;;		Nothing
  1335 ;; This function is called by:
  1336 ;;		_EUSART1_Initialize
  1337 ;; This function uses a non-reentrant model
  1338 ;;
  1339                           
  1340                           	psect	text8
  1341   001B08                     __ptext8:
  1342                           	callstack 0
  1343   001B08                     _EUSART1_SetFramingErrorHandler:
  1344                           	callstack 28
  1345   001B08                     
  1346                           ;mcc_generated_files/eusart1.c: 167:     EUSART1_FramingErrorHandler = interruptHandler;
  1347   001B08  C030  F0E6         	movff	EUSART1_SetFramingErrorHandler@interruptHandler,_EUSART1_FramingErrorHandler
  1348   001B0C  C031  F0E7         	movff	EUSART1_SetFramingErrorHandler@interruptHandler+1,_EUSART1_FramingErrorHandler+1
  1349   001B10  C032  F0E8         	movff	EUSART1_SetFramingErrorHandler@interruptHandler+2,_EUSART1_FramingErrorHandler+2
  1350   001B14  0012               	return		;funcret
  1351   001B16                     __end_of_EUSART1_SetFramingErrorHandler:
  1352                           	callstack 0
  1353                           
  1354 ;; *************** function _EUSART1_SetErrorHandler *****************
  1355 ;; Defined at:
  1356 ;;		line 174 in file "mcc_generated_files/eusart1.c"
  1357 ;; Parameters:    Size  Location     Type
  1358 ;;  interruptHan    3    0[COMRAM] PTR FTN()void 
  1359 ;;		 -> EUSART1_DefaultErrorHandler(1), 
  1360 ;; Auto vars:     Size  Location     Type
  1361 ;;		None
  1362 ;; Return value:  Size  Location     Type
  1363 ;;                  1    wreg      void 
  1364 ;; Registers used:
  1365 ;;		wreg, status,2, status,0
  1366 ;; Tracked objects:
  1367 ;;		On entry : 0/0
  1368 ;;		On exit  : 0/0
  1369 ;;		Unchanged: 0/0
  1370 ;; Data sizes:     COMRAM   BANK0   BANK1   BANK2   BANK3   BANK4   BANK5   BANK6   BANK7   BANK8   BANK9  BANK10  BANK1
      +1  BANK12  BANK13  BANK14  BANK15
  1371 ;;      Params:         3       0       0       0       0       0       0       0       0       0       0       0       
      +0       0       0       0       0
  1372 ;;      Locals:         0       0       0       0       0       0       0       0       0       0       0       0       
      +0       0       0       0       0
  1373 ;;      Temps:          0       0       0       0       0       0       0       0       0       0       0       0       
      +0       0       0       0       0
  1374 ;;      Totals:         3       0       0       0       0       0       0       0       0       0       0       0       
      +0       0       0       0       0
  1375 ;;Total ram usage:        3 bytes
  1376 ;; Hardware stack levels used: 1
  1377 ;; This function calls:
  1378 ;;		Nothing
  1379 ;; This function is called by:
  1380 ;;		_EUSART1_Initialize
  1381 ;; This function uses a non-reentrant model
  1382 ;;
  1383                           
  1384                           	psect	text9
  1385   001B16                     __ptext9:
  1386                           	callstack 0
  1387   001B16                     _EUSART1_SetErrorHandler:
  1388                           	callstack 28
  1389   001B16                     
  1390                           ;mcc_generated_files/eusart1.c: 175:     EUSART1_ErrorHandler = interruptHandler;
  1391   001B16  C030  F0E0         	movff	EUSART1_SetErrorHandler@interruptHandler,_EUSART1_ErrorHandler
  1392   001B1A  C031  F0E1         	movff	EUSART1_SetErrorHandler@interruptHandler+1,_EUSART1_ErrorHandler+1
  1393   001B1E  C032  F0E2         	movff	EUSART1_SetErrorHandler@interruptHandler+2,_EUSART1_ErrorHandler+2
  1394   001B22  0012               	return		;funcret
  1395   001B24                     __end_of_EUSART1_SetErrorHandler:
  1396                           	callstack 0
  1397                           
  1398 ;; *************** function _MAX30100_read_led_data *****************
  1399 ;; Defined at:
  1400 ;;		line 43 in file "max30100.c"
  1401 ;; Parameters:    Size  Location     Type
  1402 ;;  sens            2   27[COMRAM] PTR struct .
  1403 ;;		 -> main@senzor(8), 
  1404 ;; Auto vars:     Size  Location     Type
  1405 ;;		None
  1406 ;; Return value:  Size  Location     Type
  1407 ;;                  1    wreg      void 
  1408 ;; Registers used:
  1409 ;;		wreg, fsr2l, fsr2h, status,2, status,0, pcl, pclath, pclatu, tosl, tblptrl, tblptrh, tblptru, prodl, prodh, cstack
  1410 ;; Tracked objects:
  1411 ;;		On entry : 0/0
  1412 ;;		On exit  : 0/0
  1413 ;;		Unchanged: 0/0
  1414 ;; Data sizes:     COMRAM   BANK0   BANK1   BANK2   BANK3   BANK4   BANK5   BANK6   BANK7   BANK8   BANK9  BANK10  BANK1
      +1  BANK12  BANK13  BANK14  BANK15
  1415 ;;      Params:         2       0       0       0       0       0       0       0       0       0       0       0       
      +0       0       0       0       0
  1416 ;;      Locals:         0       0       0       0       0       0       0       0       0       0       0       0       
      +0       0       0       0       0
  1417 ;;      Temps:          2       0       0       0       0       0       0       0       0       0       0       0       
      +0       0       0       0       0
  1418 ;;      Totals:         4       0       0       0       0       0       0       0       0       0       0       0       
      +0       0       0       0       0
  1419 ;;Total ram usage:        4 bytes
  1420 ;; Hardware stack levels used: 1
  1421 ;; Hardware stack levels required when called: 9
  1422 ;; This function calls:
  1423 ;;		_I2C1_ReadDataBlock
  1424 ;; This function is called by:
  1425 ;;		_main
  1426 ;; This function uses a non-reentrant model
  1427 ;;
  1428                           
  1429                           	psect	text10
  1430   00161A                     __ptext10:
  1431                           	callstack 0
  1432   00161A                     _MAX30100_read_led_data:
  1433                           	callstack 21
  1434   00161A                     
  1435                           ;max30100.c: 44:     static uint8_t tmp_reg[4];;max30100.c: 46:     I2C1_ReadDataBlock(0
      +                          x57, 0x05, tmp_reg, 4);
  1436   00161A  0E05               	movlw	5
  1437   00161C  6E41               	movwf	I2C1_ReadDataBlock@reg^0,c
  1438   00161E  0EED               	movlw	low MAX30100_read_led_data@tmp_reg
  1439   001620  6E42               	movwf	I2C1_ReadDataBlock@data^0,c
  1440   001622  0E00               	movlw	high MAX30100_read_led_data@tmp_reg
  1441   001624  6E43               	movwf	(I2C1_ReadDataBlock@data+1)^0,c
  1442   001626  0E00               	movlw	0
  1443   001628  6E45               	movwf	(I2C1_ReadDataBlock@len+1)^0,c
  1444   00162A  0E04               	movlw	4
  1445   00162C  6E44               	movwf	I2C1_ReadDataBlock@len^0,c
  1446   00162E  0E57               	movlw	87
  1447   001630  EC0F  F00A         	call	_I2C1_ReadDataBlock
  1448   001634                     
  1449                           ;max30100.c: 48:     sens->ir_led = (uint16_t)(tmp_reg[0]<<8|tmp_reg[1]);
  1450   001634  0100               	movlb	0	; () banked
  1451   001636  51EE               	movf	(MAX30100_read_led_data@tmp_reg+1)& (0+255),w,b
  1452   001638  C0ED  F04D         	movff	MAX30100_read_led_data@tmp_reg,??_MAX30100_read_led_data
  1453   00163C  6A4E               	clrf	(??_MAX30100_read_led_data+1)^0,c
  1454   00163E  C04D  F04E         	movff	??_MAX30100_read_led_data,??_MAX30100_read_led_data+1
  1455   001642  6A4D               	clrf	??_MAX30100_read_led_data^0,c
  1456   001644  124D               	iorwf	??_MAX30100_read_led_data^0,f,c
  1457   001646  0E00               	movlw	0
  1458   001648  124E               	iorwf	(??_MAX30100_read_led_data+1)^0,f,c
  1459   00164A  C04B  FFD9         	movff	MAX30100_read_led_data@sens,fsr2l
  1460   00164E  C04C  FFDA         	movff	MAX30100_read_led_data@sens+1,fsr2h
  1461   001652  C04D  FFDE         	movff	??_MAX30100_read_led_data,postinc2
  1462   001656  C04E  FFDD         	movff	??_MAX30100_read_led_data+1,postdec2
  1463   00165A                     
  1464                           ; BSR set to: 0
  1465                           ;max30100.c: 49:     sens->red_led = (uint16_t)(tmp_reg[2]<<8|tmp_reg[3]);
  1466   00165A  51F0               	movf	(MAX30100_read_led_data@tmp_reg+3)& (0+255),w,b
  1467   00165C  C0EF  F04D         	movff	MAX30100_read_led_data@tmp_reg+2,??_MAX30100_read_led_data
  1468   001660  6A4E               	clrf	(??_MAX30100_read_led_data+1)^0,c
  1469   001662  C04D  F04E         	movff	??_MAX30100_read_led_data,??_MAX30100_read_led_data+1
  1470   001666  6A4D               	clrf	??_MAX30100_read_led_data^0,c
  1471   001668  124D               	iorwf	??_MAX30100_read_led_data^0,f,c
  1472   00166A  0E00               	movlw	0
  1473   00166C  124E               	iorwf	(??_MAX30100_read_led_data+1)^0,f,c
  1474   00166E  EE20 F002          	lfsr	2,2
  1475   001672  504B               	movf	MAX30100_read_led_data@sens^0,w,c
  1476   001674  26D9               	addwf	fsr2l,f,c
  1477   001676  504C               	movf	(MAX30100_read_led_data@sens+1)^0,w,c
  1478   001678  22DA               	addwfc	fsr2h,f,c
  1479   00167A  C04D  FFDE         	movff	??_MAX30100_read_led_data,postinc2
  1480   00167E  C04E  FFDD         	movff	??_MAX30100_read_led_data+1,postdec2
  1481   001682                     
  1482                           ; BSR set to: 0
  1483   001682  0012               	return		;funcret
  1484   001684                     __end_of_MAX30100_read_led_data:
  1485                           	callstack 0
  1486                           
  1487 ;; *************** function _I2C1_ReadDataBlock *****************
  1488 ;; Defined at:
  1489 ;;		line 128 in file "mcc_generated_files/examples/i2c1_master_example.c"
  1490 ;; Parameters:    Size  Location     Type
  1491 ;;  address         1    wreg     unsigned char 
  1492 ;;  reg             1   17[COMRAM] unsigned char 
  1493 ;;  data            2   18[COMRAM] PTR unsigned char 
  1494 ;;		 -> MAX30100_read_led_data@tmp_reg(4), 
  1495 ;;  len             2   20[COMRAM] unsigned int 
  1496 ;; Auto vars:     Size  Location     Type
  1497 ;;  address         1   22[COMRAM] unsigned char 
  1498 ;;  bufferBlock     4   23[COMRAM] struct .
  1499 ;; Return value:  Size  Location     Type
  1500 ;;                  1    wreg      void 
  1501 ;; Registers used:
  1502 ;;		wreg, fsr2l, fsr2h, status,2, status,0, pcl, pclath, pclatu, tosl, tblptrl, tblptrh, tblptru, prodl, prodh, cstack
  1503 ;; Tracked objects:
  1504 ;;		On entry : 0/0
  1505 ;;		On exit  : 0/0
  1506 ;;		Unchanged: 0/0
  1507 ;; Data sizes:     COMRAM   BANK0   BANK1   BANK2   BANK3   BANK4   BANK5   BANK6   BANK7   BANK8   BANK9  BANK10  BANK1
      +1  BANK12  BANK13  BANK14  BANK15
  1508 ;;      Params:         5       0       0       0       0       0       0       0       0       0       0       0       
      +0       0       0       0       0
  1509 ;;      Locals:         5       0       0       0       0       0       0       0       0       0       0       0       
      +0       0       0       0       0
  1510 ;;      Temps:          0       0       0       0       0       0       0       0       0       0       0       0       
      +0       0       0       0       0
  1511 ;;      Totals:        10       0       0       0       0       0       0       0       0       0       0       0       
      +0       0       0       0       0
  1512 ;;Total ram usage:       10 bytes
  1513 ;; Hardware stack levels used: 1
  1514 ;; Hardware stack levels required when called: 8
  1515 ;; This function calls:
  1516 ;;		_I2C1_Close
  1517 ;;		_I2C1_MasterWrite
  1518 ;;		_I2C1_Open
  1519 ;;		_I2C1_SetAddressNackCallback
  1520 ;;		_I2C1_SetBuffer
  1521 ;;		_I2C1_SetDataCompleteCallback
  1522 ;; This function is called by:
  1523 ;;		_MAX30100_read_led_data
  1524 ;; This function uses a non-reentrant model
  1525 ;;
  1526                           
  1527                           	psect	text11
  1528   00141E                     __ptext11:
  1529                           	callstack 0
  1530   00141E                     _I2C1_ReadDataBlock:
  1531                           	callstack 21
  1532                           
  1533                           ; BSR set to: 0
  1534                           ;incstack = 0
  1535                           ;I2C1_ReadDataBlock@address stored from wreg
  1536   00141E  6E46               	movwf	I2C1_ReadDataBlock@address^0,c
  1537   001420                     
  1538                           ;mcc_generated_files/examples/i2c1_master_example.c: 128: void I2C1_ReadDataBlock(i2c1_a
      +                          ddress_t address, uint8_t reg, uint8_t *data, size_t len);mcc_generated_files/examples/i
      +                          2c1_master_example.c: 129: {;mcc_generated_files/examples/i2c1_master_example.c: 130:   
      +                            i2c1_buffer_t bufferBlock;;mcc_generated_files/examples/i2c1_master_example.c: 131:   
      +                            bufferBlock.data = data;
  1539   001420  C042  F049         	movff	I2C1_ReadDataBlock@data,I2C1_ReadDataBlock@bufferBlock+2
  1540   001424  C043  F04A         	movff	I2C1_ReadDataBlock@data+1,I2C1_ReadDataBlock@bufferBlock+3
  1541                           
  1542                           ;mcc_generated_files/examples/i2c1_master_example.c: 132:     bufferBlock.len = len;
  1543   001428  C044  F047         	movff	I2C1_ReadDataBlock@len,I2C1_ReadDataBlock@bufferBlock
  1544   00142C  C045  F048         	movff	I2C1_ReadDataBlock@len+1,I2C1_ReadDataBlock@bufferBlock+1
  1545   001430                     l2591:
  1546   001430  5046               	movf	I2C1_ReadDataBlock@address^0,w,c
  1547   001432  ECBF  F009         	call	_I2C1_Open
  1548   001436  0900               	iorlw	0
  1549   001438  B4D8               	btfsc	status,2,c
  1550   00143A  EF21  F00A         	goto	u691
  1551   00143E  EF23  F00A         	goto	u690
  1552   001442                     u691:
  1553   001442  EF18  F00A         	goto	l2591
  1554   001446                     u690:
  1555   001446                     
  1556                           ;mcc_generated_files/examples/i2c1_master_example.c: 135:     I2C1_SetDataCompleteCallba
      +                          ck(rdBlkRegCompleteHandler,&bufferBlock);
  1557   001446  0E9C               	movlw	low _rdBlkRegCompleteHandler
  1558   001448  6E36               	movwf	I2C1_SetDataCompleteCallback@cb^0,c
  1559   00144A  0E17               	movlw	high _rdBlkRegCompleteHandler
  1560   00144C  6E37               	movwf	(I2C1_SetDataCompleteCallback@cb+1)^0,c
  1561   00144E  0E00               	movlw	low (_rdBlkRegCompleteHandler shr (0+16))
  1562   001450  6E38               	movwf	(I2C1_SetDataCompleteCallback@cb+2)^0,c
  1563   001452  0E47               	movlw	low I2C1_ReadDataBlock@bufferBlock
  1564   001454  6E39               	movwf	I2C1_SetDataCompleteCallback@ptr^0,c
  1565   001456  0E00               	movlw	high I2C1_ReadDataBlock@bufferBlock
  1566   001458  6E3A               	movwf	(I2C1_SetDataCompleteCallback@ptr+1)^0,c
  1567   00145A  EC35  F00D         	call	_I2C1_SetDataCompleteCallback	;wreg free
  1568   00145E                     
  1569                           ;mcc_generated_files/examples/i2c1_master_example.c: 136:     I2C1_SetBuffer(&reg,1);
  1570   00145E  0E41               	movlw	low I2C1_ReadDataBlock@reg
  1571   001460  6E30               	movwf	I2C1_SetBuffer@buffer^0,c
  1572   001462  0E00               	movlw	high I2C1_ReadDataBlock@reg
  1573   001464  6E31               	movwf	(I2C1_SetBuffer@buffer+1)^0,c
  1574   001466  0E00               	movlw	0
  1575   001468  6E33               	movwf	(I2C1_SetBuffer@bufferSize+1)^0,c
  1576   00146A  0E01               	movlw	1
  1577   00146C  6E32               	movwf	I2C1_SetBuffer@bufferSize^0,c
  1578   00146E  EC08  F00D         	call	_I2C1_SetBuffer	;wreg free
  1579   001472                     
  1580                           ;mcc_generated_files/examples/i2c1_master_example.c: 137:     I2C1_SetAddressNackCallbac
      +                          k(((void*)0),((void*)0));
  1581   001472  0E00               	movlw	0
  1582   001474  6E36               	movwf	I2C1_SetAddressNackCallback@cb^0,c
  1583   001476  0E00               	movlw	0
  1584   001478  6E37               	movwf	(I2C1_SetAddressNackCallback@cb+1)^0,c
  1585   00147A  0E00               	movlw	0
  1586   00147C  6E38               	movwf	(I2C1_SetAddressNackCallback@cb+2)^0,c
  1587   00147E  0E00               	movlw	0
  1588   001480  6E39               	movwf	I2C1_SetAddressNackCallback@ptr^0,c
  1589   001482  0E00               	movlw	0
  1590   001484  6E3A               	movwf	(I2C1_SetAddressNackCallback@ptr+1)^0,c
  1591   001486  EC19  F00D         	call	_I2C1_SetAddressNackCallback	;wreg free
  1592   00148A                     
  1593                           ;mcc_generated_files/examples/i2c1_master_example.c: 138:     I2C1_MasterWrite();
  1594   00148A  ECAF  F00D         	call	_I2C1_MasterWrite	;wreg free
  1595   00148E                     l2601:
  1596   00148E  ECE2  F00C         	call	_I2C1_Close	;wreg free
  1597   001492  06E8               	decf	wreg,f,c
  1598   001494  B4D8               	btfsc	status,2,c
  1599   001496  EF4F  F00A         	goto	u701
  1600   00149A  EF51  F00A         	goto	u700
  1601   00149E                     u701:
  1602   00149E  EF47  F00A         	goto	l2601
  1603   0014A2                     u700:
  1604   0014A2  0012               	return		;funcret
  1605   0014A4                     __end_of_I2C1_ReadDataBlock:
  1606                           	callstack 0
  1607                           
  1608 ;; *************** function _MAX30100_init *****************
  1609 ;; Defined at:
  1610 ;;		line 21 in file "max30100.c"
  1611 ;; Parameters:    Size  Location     Type
  1612 ;;  mode            1    wreg     enum E6485
  1613 ;;  red_led_curr    1   20[COMRAM] enum E6489
  1614 ;;  ir_led_curre    1   21[COMRAM] enum E6489
  1615 ;;  sample_rate     1   22[COMRAM] enum E6507
  1616 ;;  pulse_width     1   23[COMRAM] enum E6517
  1617 ;; Auto vars:     Size  Location     Type
  1618 ;;  mode            1   24[COMRAM] enum E6485
  1619 ;;  spo2_data       1   26[COMRAM] unsigned char 
  1620 ;;  i_data          1   25[COMRAM] unsigned char 
  1621 ;; Return value:  Size  Location     Type
  1622 ;;                  1    wreg      void 
  1623 ;; Registers used:
  1624 ;;		wreg, fsr2l, fsr2h, status,2, status,0, pcl, pclath, pclatu, tosl, tblptrl, tblptrh, tblptru, prodl, prodh, cstack
  1625 ;; Tracked objects:
  1626 ;;		On entry : 0/0
  1627 ;;		On exit  : 0/0
  1628 ;;		Unchanged: 0/0
  1629 ;; Data sizes:     COMRAM   BANK0   BANK1   BANK2   BANK3   BANK4   BANK5   BANK6   BANK7   BANK8   BANK9  BANK10  BANK1
      +1  BANK12  BANK13  BANK14  BANK15
  1630 ;;      Params:         4       0       0       0       0       0       0       0       0       0       0       0       
      +0       0       0       0       0
  1631 ;;      Locals:         3       0       0       0       0       0       0       0       0       0       0       0       
      +0       0       0       0       0
  1632 ;;      Temps:          0       0       0       0       0       0       0       0       0       0       0       0       
      +0       0       0       0       0
  1633 ;;      Totals:         7       0       0       0       0       0       0       0       0       0       0       0       
      +0       0       0       0       0
  1634 ;;Total ram usage:        7 bytes
  1635 ;; Hardware stack levels used: 1
  1636 ;; Hardware stack levels required when called: 9
  1637 ;; This function calls:
  1638 ;;		_I2C1_Write1ByteRegister
  1639 ;; This function is called by:
  1640 ;;		_main
  1641 ;; This function uses a non-reentrant model
  1642 ;;
  1643                           
  1644                           	psect	text12
  1645   001862                     __ptext12:
  1646                           	callstack 0
  1647   001862                     _MAX30100_init:
  1648                           	callstack 21
  1649                           
  1650                           ;incstack = 0
  1651                           ;MAX30100_init@mode stored from wreg
  1652   001862  6E48               	movwf	MAX30100_init@mode^0,c
  1653   001864                     
  1654                           ;max30100.c: 22:     uint8_t i_data;;max30100.c: 23:     uint8_t spo2_data;;max30100.c: 
      +                          26:     I2C1_Write1ByteRegister(0x57, 0x06, mode);
  1655   001864  0E06               	movlw	6
  1656   001866  6E41               	movwf	I2C1_Write1ByteRegister@reg^0,c
  1657   001868  C048  F042         	movff	MAX30100_init@mode,I2C1_Write1ByteRegister@data
  1658   00186C  0E57               	movlw	87
  1659   00186E  ECD2  F00A         	call	_I2C1_Write1ByteRegister
  1660   001872                     
  1661                           ;max30100.c: 29:     i_data = (uint8_t)((red_led_current<<4)|ir_led_current);
  1662   001872  3844               	swapf	MAX30100_init@red_led_current^0,w,c
  1663   001874  0BF0               	andlw	240
  1664   001876  1045               	iorwf	MAX30100_init@ir_led_current^0,w,c
  1665   001878  6E49               	movwf	MAX30100_init@i_data^0,c
  1666   00187A                     
  1667                           ;max30100.c: 30:     I2C1_Write1ByteRegister(0x57, 0x09, i_data);
  1668   00187A  0E09               	movlw	9
  1669   00187C  6E41               	movwf	I2C1_Write1ByteRegister@reg^0,c
  1670   00187E  C049  F042         	movff	MAX30100_init@i_data,I2C1_Write1ByteRegister@data
  1671   001882  0E57               	movlw	87
  1672   001884  ECD2  F00A         	call	_I2C1_Write1ByteRegister
  1673                           
  1674                           ;max30100.c: 33:     spo2_data = (uint8_t)((sample_rate<<2)|pulse_width);
  1675   001888  4446               	rlncf	MAX30100_init@sample_rate^0,w,c
  1676   00188A  46E8               	rlncf	wreg,f,c
  1677   00188C  0BFC               	andlw	252
  1678   00188E  1047               	iorwf	MAX30100_init@pulse_width^0,w,c
  1679   001890  6E4A               	movwf	MAX30100_init@spo2_data^0,c
  1680   001892                     
  1681                           ;max30100.c: 34:     I2C1_Write1ByteRegister(0x57, 0x07, spo2_data);
  1682   001892  0E07               	movlw	7
  1683   001894  6E41               	movwf	I2C1_Write1ByteRegister@reg^0,c
  1684   001896  C04A  F042         	movff	MAX30100_init@spo2_data,I2C1_Write1ByteRegister@data
  1685   00189A  0E57               	movlw	87
  1686   00189C  ECD2  F00A         	call	_I2C1_Write1ByteRegister
  1687   0018A0  0012               	return		;funcret
  1688   0018A2                     __end_of_MAX30100_init:
  1689                           	callstack 0
  1690                           
  1691 ;; *************** function _MAX30100_FIFO_init *****************
  1692 ;; Defined at:
  1693 ;;		line 37 in file "max30100.c"
  1694 ;; Parameters:    Size  Location     Type
  1695 ;;		None
  1696 ;; Auto vars:     Size  Location     Type
  1697 ;;		None
  1698 ;; Return value:  Size  Location     Type
  1699 ;;                  1    wreg      void 
  1700 ;; Registers used:
  1701 ;;		wreg, fsr2l, fsr2h, status,2, status,0, pcl, pclath, pclatu, tosl, tblptrl, tblptrh, tblptru, prodl, prodh, cstack
  1702 ;; Tracked objects:
  1703 ;;		On entry : 0/0
  1704 ;;		On exit  : 0/0
  1705 ;;		Unchanged: 0/0
  1706 ;; Data sizes:     COMRAM   BANK0   BANK1   BANK2   BANK3   BANK4   BANK5   BANK6   BANK7   BANK8   BANK9  BANK10  BANK1
      +1  BANK12  BANK13  BANK14  BANK15
  1707 ;;      Params:         0       0       0       0       0       0       0       0       0       0       0       0       
      +0       0       0       0       0
  1708 ;;      Locals:         0       0       0       0       0       0       0       0       0       0       0       0       
      +0       0       0       0       0
  1709 ;;      Temps:          0       0       0       0       0       0       0       0       0       0       0       0       
      +0       0       0       0       0
  1710 ;;      Totals:         0       0       0       0       0       0       0       0       0       0       0       0       
      +0       0       0       0       0
  1711 ;;Total ram usage:        0 bytes
  1712 ;; Hardware stack levels used: 1
  1713 ;; Hardware stack levels required when called: 9
  1714 ;; This function calls:
  1715 ;;		_I2C1_Write1ByteRegister
  1716 ;; This function is called by:
  1717 ;;		_main
  1718 ;; This function uses a non-reentrant model
  1719 ;;
  1720                           
  1721                           	psect	text13
  1722   001998                     __ptext13:
  1723                           	callstack 0
  1724   001998                     _MAX30100_FIFO_init:
  1725                           	callstack 21
  1726   001998                     
  1727                           ;max30100.c: 38:     I2C1_Write1ByteRegister(0x57, 0x02, 0x00);
  1728   001998  0E02               	movlw	2
  1729   00199A  6E41               	movwf	I2C1_Write1ByteRegister@reg^0,c
  1730   00199C  0E00               	movlw	0
  1731   00199E  6E42               	movwf	I2C1_Write1ByteRegister@data^0,c
  1732   0019A0  0E57               	movlw	87
  1733   0019A2  ECD2  F00A         	call	_I2C1_Write1ByteRegister
  1734                           
  1735                           ;max30100.c: 39:     I2C1_Write1ByteRegister(0x57, 0x03, 0x00);
  1736   0019A6  0E03               	movlw	3
  1737   0019A8  6E41               	movwf	I2C1_Write1ByteRegister@reg^0,c
  1738   0019AA  0E00               	movlw	0
  1739   0019AC  6E42               	movwf	I2C1_Write1ByteRegister@data^0,c
  1740   0019AE  0E57               	movlw	87
  1741   0019B0  ECD2  F00A         	call	_I2C1_Write1ByteRegister
  1742                           
  1743                           ;max30100.c: 40:     I2C1_Write1ByteRegister(0x57, 0x04, 0x00);
  1744   0019B4  0E04               	movlw	4
  1745   0019B6  6E41               	movwf	I2C1_Write1ByteRegister@reg^0,c
  1746   0019B8  0E00               	movlw	0
  1747   0019BA  6E42               	movwf	I2C1_Write1ByteRegister@data^0,c
  1748   0019BC  0E57               	movlw	87
  1749   0019BE  ECD2  F00A         	call	_I2C1_Write1ByteRegister
  1750   0019C2  0012               	return		;funcret
  1751   0019C4                     __end_of_MAX30100_FIFO_init:
  1752                           	callstack 0
  1753                           
  1754 ;; *************** function _I2C1_Write1ByteRegister *****************
  1755 ;; Defined at:
  1756 ;;		line 91 in file "mcc_generated_files/examples/i2c1_master_example.c"
  1757 ;; Parameters:    Size  Location     Type
  1758 ;;  address         1    wreg     unsigned char 
  1759 ;;  reg             1   17[COMRAM] unsigned char 
  1760 ;;  data            1   18[COMRAM] unsigned char 
  1761 ;; Auto vars:     Size  Location     Type
  1762 ;;  address         1   19[COMRAM] unsigned char 
  1763 ;; Return value:  Size  Location     Type
  1764 ;;                  1    wreg      void 
  1765 ;; Registers used:
  1766 ;;		wreg, fsr2l, fsr2h, status,2, status,0, pcl, pclath, pclatu, tosl, tblptrl, tblptrh, tblptru, prodl, prodh, cstack
  1767 ;; Tracked objects:
  1768 ;;		On entry : 0/0
  1769 ;;		On exit  : 0/0
  1770 ;;		Unchanged: 0/0
  1771 ;; Data sizes:     COMRAM   BANK0   BANK1   BANK2   BANK3   BANK4   BANK5   BANK6   BANK7   BANK8   BANK9  BANK10  BANK1
      +1  BANK12  BANK13  BANK14  BANK15
  1772 ;;      Params:         2       0       0       0       0       0       0       0       0       0       0       0       
      +0       0       0       0       0
  1773 ;;      Locals:         1       0       0       0       0       0       0       0       0       0       0       0       
      +0       0       0       0       0
  1774 ;;      Temps:          0       0       0       0       0       0       0       0       0       0       0       0       
      +0       0       0       0       0
  1775 ;;      Totals:         3       0       0       0       0       0       0       0       0       0       0       0       
      +0       0       0       0       0
  1776 ;;Total ram usage:        3 bytes
  1777 ;; Hardware stack levels used: 1
  1778 ;; Hardware stack levels required when called: 8
  1779 ;; This function calls:
  1780 ;;		_I2C1_Close
  1781 ;;		_I2C1_MasterWrite
  1782 ;;		_I2C1_Open
  1783 ;;		_I2C1_SetAddressNackCallback
  1784 ;;		_I2C1_SetBuffer
  1785 ;;		_I2C1_SetDataCompleteCallback
  1786 ;; This function is called by:
  1787 ;;		_MAX30100_init
  1788 ;;		_MAX30100_FIFO_init
  1789 ;;		_MAX30100_reset
  1790 ;;		_MAX30100_enable_temp_read
  1791 ;; This function uses a non-reentrant model
  1792 ;;
  1793                           
  1794                           	psect	text14
  1795   0015A4                     __ptext14:
  1796                           	callstack 0
  1797   0015A4                     _I2C1_Write1ByteRegister:
  1798                           	callstack 21
  1799                           
  1800                           ;incstack = 0
  1801                           ;I2C1_Write1ByteRegister@address stored from wreg
  1802   0015A4  6E43               	movwf	I2C1_Write1ByteRegister@address^0,c
  1803   0015A6                     l2577:
  1804   0015A6  5043               	movf	I2C1_Write1ByteRegister@address^0,w,c
  1805   0015A8  ECBF  F009         	call	_I2C1_Open
  1806   0015AC  0900               	iorlw	0
  1807   0015AE  B4D8               	btfsc	status,2,c
  1808   0015B0  EFDC  F00A         	goto	u671
  1809   0015B4  EFDE  F00A         	goto	u670
  1810   0015B8                     u671:
  1811   0015B8  EFD3  F00A         	goto	l2577
  1812   0015BC                     u670:
  1813   0015BC                     
  1814                           ;mcc_generated_files/examples/i2c1_master_example.c: 94:     I2C1_SetDataCompleteCallbac
      +                          k(wr1RegCompleteHandler,&data);
  1815   0015BC  0ED8               	movlw	low _wr1RegCompleteHandler
  1816   0015BE  6E36               	movwf	I2C1_SetDataCompleteCallback@cb^0,c
  1817   0015C0  0E18               	movlw	high _wr1RegCompleteHandler
  1818   0015C2  6E37               	movwf	(I2C1_SetDataCompleteCallback@cb+1)^0,c
  1819   0015C4  0E00               	movlw	low (_wr1RegCompleteHandler shr (0+16))
  1820   0015C6  6E38               	movwf	(I2C1_SetDataCompleteCallback@cb+2)^0,c
  1821   0015C8  0E42               	movlw	low I2C1_Write1ByteRegister@data
  1822   0015CA  6E39               	movwf	I2C1_SetDataCompleteCallback@ptr^0,c
  1823   0015CC  0E00               	movlw	high I2C1_Write1ByteRegister@data
  1824   0015CE  6E3A               	movwf	(I2C1_SetDataCompleteCallback@ptr+1)^0,c
  1825   0015D0  EC35  F00D         	call	_I2C1_SetDataCompleteCallback	;wreg free
  1826   0015D4                     
  1827                           ;mcc_generated_files/examples/i2c1_master_example.c: 95:     I2C1_SetBuffer(&reg,1);
  1828   0015D4  0E41               	movlw	low I2C1_Write1ByteRegister@reg
  1829   0015D6  6E30               	movwf	I2C1_SetBuffer@buffer^0,c
  1830   0015D8  0E00               	movlw	high I2C1_Write1ByteRegister@reg
  1831   0015DA  6E31               	movwf	(I2C1_SetBuffer@buffer+1)^0,c
  1832   0015DC  0E00               	movlw	0
  1833   0015DE  6E33               	movwf	(I2C1_SetBuffer@bufferSize+1)^0,c
  1834   0015E0  0E01               	movlw	1
  1835   0015E2  6E32               	movwf	I2C1_SetBuffer@bufferSize^0,c
  1836   0015E4  EC08  F00D         	call	_I2C1_SetBuffer	;wreg free
  1837   0015E8                     
  1838                           ;mcc_generated_files/examples/i2c1_master_example.c: 96:     I2C1_SetAddressNackCallback
      +                          (((void*)0),((void*)0));
  1839   0015E8  0E00               	movlw	0
  1840   0015EA  6E36               	movwf	I2C1_SetAddressNackCallback@cb^0,c
  1841   0015EC  0E00               	movlw	0
  1842   0015EE  6E37               	movwf	(I2C1_SetAddressNackCallback@cb+1)^0,c
  1843   0015F0  0E00               	movlw	0
  1844   0015F2  6E38               	movwf	(I2C1_SetAddressNackCallback@cb+2)^0,c
  1845   0015F4  0E00               	movlw	0
  1846   0015F6  6E39               	movwf	I2C1_SetAddressNackCallback@ptr^0,c
  1847   0015F8  0E00               	movlw	0
  1848   0015FA  6E3A               	movwf	(I2C1_SetAddressNackCallback@ptr+1)^0,c
  1849   0015FC  EC19  F00D         	call	_I2C1_SetAddressNackCallback	;wreg free
  1850   001600                     
  1851                           ;mcc_generated_files/examples/i2c1_master_example.c: 97:     I2C1_MasterWrite();
  1852   001600  ECAF  F00D         	call	_I2C1_MasterWrite	;wreg free
  1853   001604                     l2587:
  1854   001604  ECE2  F00C         	call	_I2C1_Close	;wreg free
  1855   001608  06E8               	decf	wreg,f,c
  1856   00160A  B4D8               	btfsc	status,2,c
  1857   00160C  EF0A  F00B         	goto	u681
  1858   001610  EF0C  F00B         	goto	u680
  1859   001614                     u681:
  1860   001614  EF02  F00B         	goto	l2587
  1861   001618                     u680:
  1862   001618  0012               	return		;funcret
  1863   00161A                     __end_of_I2C1_Write1ByteRegister:
  1864                           	callstack 0
  1865                           
  1866 ;; *************** function _I2C1_SetAddressNackCallback *****************
  1867 ;; Defined at:
  1868 ;;		line 283 in file "mcc_generated_files/i2c1_master.c"
  1869 ;; Parameters:    Size  Location     Type
  1870 ;;  cb              3    6[COMRAM] PTR FTN(PTR void ,)enum 
  1871 ;;		 -> Absolute function(1), 
  1872 ;;  ptr             2    9[COMRAM] PTR void 
  1873 ;;		 -> NULL(0), 
  1874 ;; Auto vars:     Size  Location     Type
  1875 ;;		None
  1876 ;; Return value:  Size  Location     Type
  1877 ;;                  1    wreg      void 
  1878 ;; Registers used:
  1879 ;;		wreg, fsr2l, fsr2h, status,2, status,0, prodl, prodh, cstack
  1880 ;; Tracked objects:
  1881 ;;		On entry : 0/0
  1882 ;;		On exit  : 0/0
  1883 ;;		Unchanged: 0/0
  1884 ;; Data sizes:     COMRAM   BANK0   BANK1   BANK2   BANK3   BANK4   BANK5   BANK6   BANK7   BANK8   BANK9  BANK10  BANK1
      +1  BANK12  BANK13  BANK14  BANK15
  1885 ;;      Params:         5       0       0       0       0       0       0       0       0       0       0       0       
      +0       0       0       0       0
  1886 ;;      Locals:         0       0       0       0       0       0       0       0       0       0       0       0       
      +0       0       0       0       0
  1887 ;;      Temps:          0       0       0       0       0       0       0       0       0       0       0       0       
      +0       0       0       0       0
  1888 ;;      Totals:         5       0       0       0       0       0       0       0       0       0       0       0       
      +0       0       0       0       0
  1889 ;;Total ram usage:        5 bytes
  1890 ;; Hardware stack levels used: 1
  1891 ;; Hardware stack levels required when called: 1
  1892 ;; This function calls:
  1893 ;;		_I2C1_SetCallback
  1894 ;; This function is called by:
  1895 ;;		_I2C1_Write1ByteRegister
  1896 ;;		_I2C1_ReadDataBlock
  1897 ;;		_I2C1_Read1ByteRegister
  1898 ;;		_I2C1_Read2ByteRegister
  1899 ;;		_I2C1_Write2ByteRegister
  1900 ;;		_I2C1_WriteNBytes
  1901 ;; This function uses a non-reentrant model
  1902 ;;
  1903                           
  1904                           	psect	text15
  1905   001A32                     __ptext15:
  1906                           	callstack 0
  1907   001A32                     _I2C1_SetAddressNackCallback:
  1908                           	callstack 27
  1909   001A32                     
  1910                           ;mcc_generated_files/i2c1_master.c: 283: void I2C1_SetAddressNackCallback(i2c1_callback_
      +                          t cb, void *ptr);mcc_generated_files/i2c1_master.c: 284: {;mcc_generated_files/i2c1_mast
      +                          er.c: 285:     I2C1_SetCallback(I2C1_ADDR_NACK, cb, ptr);
  1911   001A32  C036  F030         	movff	I2C1_SetAddressNackCallback@cb,I2C1_SetCallback@cb
  1912   001A36  C037  F031         	movff	I2C1_SetAddressNackCallback@cb+1,I2C1_SetCallback@cb+1
  1913   001A3A  C038  F032         	movff	I2C1_SetAddressNackCallback@cb+2,I2C1_SetCallback@cb+2
  1914   001A3E  C039  F033         	movff	I2C1_SetAddressNackCallback@ptr,I2C1_SetCallback@ptr
  1915   001A42  C03A  F034         	movff	I2C1_SetAddressNackCallback@ptr+1,I2C1_SetCallback@ptr+1
  1916   001A46  0E02               	movlw	2
  1917   001A48  EC52  F00A         	call	_I2C1_SetCallback
  1918   001A4C  0012               	return		;funcret
  1919   001A4E                     __end_of_I2C1_SetAddressNackCallback:
  1920                           	callstack 0
  1921                           
  1922 ;; *************** function _I2C1_Open *****************
  1923 ;; Defined at:
  1924 ;;		line 176 in file "mcc_generated_files/i2c1_master.c"
  1925 ;; Parameters:    Size  Location     Type
  1926 ;;  address         1    wreg     unsigned char 
  1927 ;; Auto vars:     Size  Location     Type
  1928 ;;  address         1    0[COMRAM] unsigned char 
  1929 ;;  returnValue     1    1[COMRAM] enum E355
  1930 ;; Return value:  Size  Location     Type
  1931 ;;                  1    wreg      enum E355
  1932 ;; Registers used:
  1933 ;;		wreg, status,2, status,0, cstack
  1934 ;; Tracked objects:
  1935 ;;		On entry : 0/0
  1936 ;;		On exit  : 0/0
  1937 ;;		Unchanged: 0/0
  1938 ;; Data sizes:     COMRAM   BANK0   BANK1   BANK2   BANK3   BANK4   BANK5   BANK6   BANK7   BANK8   BANK9  BANK10  BANK1
      +1  BANK12  BANK13  BANK14  BANK15
  1939 ;;      Params:         0       0       0       0       0       0       0       0       0       0       0       0       
      +0       0       0       0       0
  1940 ;;      Locals:         2       0       0       0       0       0       0       0       0       0       0       0       
      +0       0       0       0       0
  1941 ;;      Temps:          0       0       0       0       0       0       0       0       0       0       0       0       
      +0       0       0       0       0
  1942 ;;      Totals:         2       0       0       0       0       0       0       0       0       0       0       0       
      +0       0       0       0       0
  1943 ;;Total ram usage:        2 bytes
  1944 ;; Hardware stack levels used: 1
  1945 ;; Hardware stack levels required when called: 1
  1946 ;; This function calls:
  1947 ;;		_I2C1_MasterClearIrq
  1948 ;;		_I2C1_MasterOpen
  1949 ;; This function is called by:
  1950 ;;		_I2C1_Write1ByteRegister
  1951 ;;		_I2C1_ReadDataBlock
  1952 ;;		_I2C1_Read1ByteRegister
  1953 ;;		_I2C1_Read2ByteRegister
  1954 ;;		_I2C1_Write2ByteRegister
  1955 ;;		_I2C1_WriteNBytes
  1956 ;;		_I2C1_ReadNBytes
  1957 ;; This function uses a non-reentrant model
  1958 ;;
  1959                           
  1960                           	psect	text16
  1961   00137E                     __ptext16:
  1962                           	callstack 0
  1963   00137E                     _I2C1_Open:
  1964                           	callstack 27
  1965                           
  1966                           ;incstack = 0
  1967                           ;I2C1_Open@address stored from wreg
  1968   00137E  6E30               	movwf	I2C1_Open@address^0,c
  1969   001380                     
  1970                           ;mcc_generated_files/i2c1_master.c: 176: i2c1_error_t I2C1_Open(i2c1_address_t address);
      +                          mcc_generated_files/i2c1_master.c: 177: {;mcc_generated_files/i2c1_master.c: 178:     i2
      +                          c1_error_t returnValue = I2C1_BUSY;
  1971   001380  0E01               	movlw	1
  1972   001382  6E31               	movwf	I2C1_Open@returnValue^0,c
  1973   001384                     
  1974                           ;mcc_generated_files/i2c1_master.c: 180:     if(!I2C1_Status.inUse)
  1975   001384  B42A               	btfsc	(_I2C1_Status+41)^0,2,c
  1976   001386  EFC7  F009         	goto	u651
  1977   00138A  EFC9  F009         	goto	u650
  1978   00138E                     u651:
  1979   00138E  EF0D  F00A         	goto	l2545
  1980   001392                     u650:
  1981   001392                     
  1982                           ;mcc_generated_files/i2c1_master.c: 181:     {;mcc_generated_files/i2c1_master.c: 182:  
      +                                 I2C1_Status.address = address;
  1983   001392  C030  F023         	movff	I2C1_Open@address,_I2C1_Status+34
  1984   001396                     
  1985                           ;mcc_generated_files/i2c1_master.c: 183:         I2C1_Status.busy = 0;
  1986   001396  922A               	bcf	(_I2C1_Status+41)^0,1,c
  1987   001398                     
  1988                           ;mcc_generated_files/i2c1_master.c: 184:         I2C1_Status.inUse = 1;
  1989   001398  842A               	bsf	(_I2C1_Status+41)^0,2,c
  1990   00139A                     
  1991                           ;mcc_generated_files/i2c1_master.c: 185:         I2C1_Status.addressNackCheck = 0;
  1992   00139A  902A               	bcf	(_I2C1_Status+41)^0,0,c
  1993   00139C                     
  1994                           ;mcc_generated_files/i2c1_master.c: 186:         I2C1_Status.state = I2C1_RESET;
  1995   00139C  0E0E               	movlw	14
  1996   00139E  6E28               	movwf	(_I2C1_Status+39)^0,c
  1997   0013A0                     
  1998                           ;mcc_generated_files/i2c1_master.c: 187:         I2C1_Status.time_out_value = 500;
  1999   0013A0  0E01               	movlw	1
  2000   0013A2  6E22               	movwf	(_I2C1_Status+33)^0,c
  2001   0013A4  0EF4               	movlw	244
  2002   0013A6  6E21               	movwf	(_I2C1_Status+32)^0,c
  2003   0013A8                     
  2004                           ;mcc_generated_files/i2c1_master.c: 188:         I2C1_Status.bufferFree = 1;
  2005   0013A8  862A               	bsf	(_I2C1_Status+41)^0,3,c
  2006   0013AA                     
  2007                           ;mcc_generated_files/i2c1_master.c: 191:         I2C1_Status.callbackTable[I2C1_DATA_COM
      +                          PLETE]=I2C1_CallbackReturnStop;
  2008   0013AA  0EC2               	movlw	low _I2C1_CallbackReturnStop
  2009   0013AC  6E01               	movwf	_I2C1_Status^0,c
  2010   0013AE  0E1B               	movlw	high _I2C1_CallbackReturnStop
  2011   0013B0  6E02               	movwf	(_I2C1_Status+1)^0,c
  2012   0013B2  0E00               	movlw	low (_I2C1_CallbackReturnStop shr (0+16))
  2013   0013B4  6E03               	movwf	(_I2C1_Status+2)^0,c
  2014   0013B6                     
  2015                           ;mcc_generated_files/i2c1_master.c: 192:         I2C1_Status.callbackPayload[I2C1_DATA_C
      +                          OMPLETE] = ((void*)0);
  2016   0013B6  0E00               	movlw	0
  2017   0013B8  6E13               	movwf	(_I2C1_Status+18)^0,c
  2018   0013BA  0E00               	movlw	0
  2019   0013BC  6E14               	movwf	(_I2C1_Status+19)^0,c
  2020   0013BE                     
  2021                           ;mcc_generated_files/i2c1_master.c: 193:         I2C1_Status.callbackTable[I2C1_WRITE_CO
      +                          LLISION]=I2C1_CallbackReturnStop;
  2022   0013BE  0EC2               	movlw	low _I2C1_CallbackReturnStop
  2023   0013C0  6E04               	movwf	(_I2C1_Status+3)^0,c
  2024   0013C2  0E1B               	movlw	high _I2C1_CallbackReturnStop
  2025   0013C4  6E05               	movwf	(_I2C1_Status+4)^0,c
  2026   0013C6  0E00               	movlw	low (_I2C1_CallbackReturnStop shr (0+16))
  2027   0013C8  6E06               	movwf	(_I2C1_Status+5)^0,c
  2028   0013CA                     
  2029                           ;mcc_generated_files/i2c1_master.c: 194:         I2C1_Status.callbackPayload[I2C1_WRITE_
      +                          COLLISION] = ((void*)0);
  2030   0013CA  0E00               	movlw	0
  2031   0013CC  6E15               	movwf	(_I2C1_Status+20)^0,c
  2032   0013CE  0E00               	movlw	0
  2033   0013D0  6E16               	movwf	(_I2C1_Status+21)^0,c
  2034   0013D2                     
  2035                           ;mcc_generated_files/i2c1_master.c: 195:         I2C1_Status.callbackTable[I2C1_ADDR_NAC
      +                          K]=I2C1_CallbackReturnStop;
  2036   0013D2  0EC2               	movlw	low _I2C1_CallbackReturnStop
  2037   0013D4  6E07               	movwf	(_I2C1_Status+6)^0,c
  2038   0013D6  0E1B               	movlw	high _I2C1_CallbackReturnStop
  2039   0013D8  6E08               	movwf	(_I2C1_Status+7)^0,c
  2040   0013DA  0E00               	movlw	low (_I2C1_CallbackReturnStop shr (0+16))
  2041   0013DC  6E09               	movwf	(_I2C1_Status+8)^0,c
  2042   0013DE                     
  2043                           ;mcc_generated_files/i2c1_master.c: 196:         I2C1_Status.callbackPayload[I2C1_ADDR_N
      +                          ACK] = ((void*)0);
  2044   0013DE  0E00               	movlw	0
  2045   0013E0  6E17               	movwf	(_I2C1_Status+22)^0,c
  2046   0013E2  0E00               	movlw	0
  2047   0013E4  6E18               	movwf	(_I2C1_Status+23)^0,c
  2048   0013E6                     
  2049                           ;mcc_generated_files/i2c1_master.c: 197:         I2C1_Status.callbackTable[I2C1_DATA_NAC
      +                          K]=I2C1_CallbackReturnStop;
  2050   0013E6  0EC2               	movlw	low _I2C1_CallbackReturnStop
  2051   0013E8  6E0A               	movwf	(_I2C1_Status+9)^0,c
  2052   0013EA  0E1B               	movlw	high _I2C1_CallbackReturnStop
  2053   0013EC  6E0B               	movwf	(_I2C1_Status+10)^0,c
  2054   0013EE  0E00               	movlw	low (_I2C1_CallbackReturnStop shr (0+16))
  2055   0013F0  6E0C               	movwf	(_I2C1_Status+11)^0,c
  2056   0013F2                     
  2057                           ;mcc_generated_files/i2c1_master.c: 198:         I2C1_Status.callbackPayload[I2C1_DATA_N
      +                          ACK] = ((void*)0);
  2058   0013F2  0E00               	movlw	0
  2059   0013F4  6E19               	movwf	(_I2C1_Status+24)^0,c
  2060   0013F6  0E00               	movlw	0
  2061   0013F8  6E1A               	movwf	(_I2C1_Status+25)^0,c
  2062   0013FA                     
  2063                           ;mcc_generated_files/i2c1_master.c: 199:         I2C1_Status.callbackTable[I2C1_TIMEOUT]
      +                          =I2C1_CallbackReturnReset;
  2064   0013FA  0EBE               	movlw	low _I2C1_CallbackReturnReset
  2065   0013FC  6E0D               	movwf	(_I2C1_Status+12)^0,c
  2066   0013FE  0E1B               	movlw	high _I2C1_CallbackReturnReset
  2067   001400  6E0E               	movwf	(_I2C1_Status+13)^0,c
  2068   001402  0E00               	movlw	low (_I2C1_CallbackReturnReset shr (0+16))
  2069   001404  6E0F               	movwf	(_I2C1_Status+14)^0,c
  2070   001406                     
  2071                           ;mcc_generated_files/i2c1_master.c: 200:         I2C1_Status.callbackPayload[I2C1_TIMEOU
      +                          T] = ((void*)0);
  2072   001406  0E00               	movlw	0
  2073   001408  6E1B               	movwf	(_I2C1_Status+26)^0,c
  2074   00140A  0E00               	movlw	0
  2075   00140C  6E1C               	movwf	(_I2C1_Status+27)^0,c
  2076   00140E                     
  2077                           ;mcc_generated_files/i2c1_master.c: 202:         I2C1_MasterClearIrq();
  2078   00140E  ECED  F00D         	call	_I2C1_MasterClearIrq	;wreg free
  2079   001412                     
  2080                           ;mcc_generated_files/i2c1_master.c: 203:         I2C1_MasterOpen();
  2081   001412  ECF7  F00C         	call	_I2C1_MasterOpen	;wreg free
  2082   001416                     
  2083                           ;mcc_generated_files/i2c1_master.c: 204:         returnValue = I2C1_NOERR;
  2084   001416  0E00               	movlw	0
  2085   001418  6E31               	movwf	I2C1_Open@returnValue^0,c
  2086   00141A                     l2545:
  2087                           
  2088                           ;mcc_generated_files/i2c1_master.c: 206:     return returnValue;
  2089   00141A  5031               	movf	I2C1_Open@returnValue^0,w,c
  2090   00141C  0012               	return		;funcret
  2091   00141E                     __end_of_I2C1_Open:
  2092                           	callstack 0
  2093                           
  2094 ;; *************** function _I2C1_MasterOpen *****************
  2095 ;; Defined at:
  2096 ;;		line 543 in file "mcc_generated_files/i2c1_master.c"
  2097 ;; Parameters:    Size  Location     Type
  2098 ;;		None
  2099 ;; Auto vars:     Size  Location     Type
  2100 ;;		None
  2101 ;; Return value:  Size  Location     Type
  2102 ;;                  1    wreg      _Bool 
  2103 ;; Registers used:
  2104 ;;		wreg, status,2
  2105 ;; Tracked objects:
  2106 ;;		On entry : 0/0
  2107 ;;		On exit  : 0/0
  2108 ;;		Unchanged: 0/0
  2109 ;; Data sizes:     COMRAM   BANK0   BANK1   BANK2   BANK3   BANK4   BANK5   BANK6   BANK7   BANK8   BANK9  BANK10  BANK1
      +1  BANK12  BANK13  BANK14  BANK15
  2110 ;;      Params:         0       0       0       0       0       0       0       0       0       0       0       0       
      +0       0       0       0       0
  2111 ;;      Locals:         0       0       0       0       0       0       0       0       0       0       0       0       
      +0       0       0       0       0
  2112 ;;      Temps:          0       0       0       0       0       0       0       0       0       0       0       0       
      +0       0       0       0       0
  2113 ;;      Totals:         0       0       0       0       0       0       0       0       0       0       0       0       
      +0       0       0       0       0
  2114 ;;Total ram usage:        0 bytes
  2115 ;; Hardware stack levels used: 1
  2116 ;; This function calls:
  2117 ;;		Nothing
  2118 ;; This function is called by:
  2119 ;;		_I2C1_Open
  2120 ;; This function uses a non-reentrant model
  2121 ;;
  2122                           
  2123                           	psect	text17
  2124   0019EE                     __ptext17:
  2125                           	callstack 0
  2126   0019EE                     _I2C1_MasterOpen:
  2127                           	callstack 27
  2128   0019EE                     
  2129                           ;mcc_generated_files/i2c1_master.c: 545:     if(!SSP1CON1bits.SSPEN)
  2130   0019EE  BAC6               	btfsc	198,5,c	;volatile
  2131   0019F0  EFFC  F00C         	goto	u621
  2132   0019F4  EFFE  F00C         	goto	u620
  2133   0019F8                     u621:
  2134   0019F8  EF07  F00D         	goto	l472
  2135   0019FC                     u620:
  2136   0019FC                     
  2137                           ;mcc_generated_files/i2c1_master.c: 546:     {;mcc_generated_files/i2c1_master.c: 547:  
      +                                 SSP1STAT = 0x00;
  2138   0019FC  0E00               	movlw	0
  2139   0019FE  6EC7               	movwf	199,c	;volatile
  2140                           
  2141                           ;mcc_generated_files/i2c1_master.c: 548:         SSP1CON1 = 0x08;
  2142   001A00  0E08               	movlw	8
  2143   001A02  6EC6               	movwf	198,c	;volatile
  2144                           
  2145                           ;mcc_generated_files/i2c1_master.c: 549:         SSP1CON2 = 0x00;
  2146   001A04  0E00               	movlw	0
  2147   001A06  6EC5               	movwf	197,c	;volatile
  2148                           
  2149                           ;mcc_generated_files/i2c1_master.c: 550:         SSP1ADD = 0x9F;
  2150   001A08  0E9F               	movlw	159
  2151   001A0A  6EC8               	movwf	200,c	;volatile
  2152   001A0C                     
  2153                           ;mcc_generated_files/i2c1_master.c: 551:         SSP1CON1bits.SSPEN = 1;
  2154   001A0C  8AC6               	bsf	198,5,c	;volatile
  2155   001A0E                     l472:
  2156   001A0E  0012               	return		;funcret
  2157   001A10                     __end_of_I2C1_MasterOpen:
  2158                           	callstack 0
  2159                           
  2160 ;; *************** function _I2C1_MasterWrite *****************
  2161 ;; Defined at:
  2162 ;;		line 251 in file "mcc_generated_files/i2c1_master.c"
  2163 ;; Parameters:    Size  Location     Type
  2164 ;;		None
  2165 ;; Auto vars:     Size  Location     Type
  2166 ;;		None
  2167 ;; Return value:  Size  Location     Type
  2168 ;;                  1    wreg      enum E355
  2169 ;; Registers used:
  2170 ;;		wreg, fsr2l, fsr2h, status,2, status,0, pcl, pclath, pclatu, tosl, tblptrl, tblptrh, tblptru, prodl, prodh, cstack
  2171 ;; Tracked objects:
  2172 ;;		On entry : 0/0
  2173 ;;		On exit  : 0/0
  2174 ;;		Unchanged: 0/0
  2175 ;; Data sizes:     COMRAM   BANK0   BANK1   BANK2   BANK3   BANK4   BANK5   BANK6   BANK7   BANK8   BANK9  BANK10  BANK1
      +1  BANK12  BANK13  BANK14  BANK15
  2176 ;;      Params:         0       0       0       0       0       0       0       0       0       0       0       0       
      +0       0       0       0       0
  2177 ;;      Locals:         0       0       0       0       0       0       0       0       0       0       0       0       
      +0       0       0       0       0
  2178 ;;      Temps:          0       0       0       0       0       0       0       0       0       0       0       0       
      +0       0       0       0       0
  2179 ;;      Totals:         0       0       0       0       0       0       0       0       0       0       0       0       
      +0       0       0       0       0
  2180 ;;Total ram usage:        0 bytes
  2181 ;; Hardware stack levels used: 1
  2182 ;; Hardware stack levels required when called: 7
  2183 ;; This function calls:
  2184 ;;		_I2C1_MasterOperation
  2185 ;; This function is called by:
  2186 ;;		_I2C1_Write1ByteRegister
  2187 ;;		_I2C1_ReadDataBlock
  2188 ;;		_I2C1_Read1ByteRegister
  2189 ;;		_I2C1_Read2ByteRegister
  2190 ;;		_I2C1_Write2ByteRegister
  2191 ;;		_I2C1_WriteNBytes
  2192 ;; This function uses a non-reentrant model
  2193 ;;
  2194                           
  2195                           	psect	text18
  2196   001B5E                     __ptext18:
  2197                           	callstack 0
  2198   001B5E                     _I2C1_MasterWrite:
  2199                           	callstack 21
  2200   001B5E                     
  2201                           ;mcc_generated_files/i2c1_master.c: 253:     return I2C1_MasterOperation(0);;	Return val
      +                          ue of _I2C1_MasterWrite is never used
  2202   001B5E  0E00               	movlw	0
  2203   001B60  ECF0  F00B         	call	_I2C1_MasterOperation
  2204   001B64  0012               	return		;funcret
  2205   001B66                     __end_of_I2C1_MasterWrite:
  2206                           	callstack 0
  2207                           
  2208 ;; *************** function _I2C1_MasterOperation *****************
  2209 ;; Defined at:
  2210 ;;		line 224 in file "mcc_generated_files/i2c1_master.c"
  2211 ;; Parameters:    Size  Location     Type
  2212 ;;  read            1    wreg     _Bool 
  2213 ;; Auto vars:     Size  Location     Type
  2214 ;;  read            1   15[COMRAM] _Bool 
  2215 ;;  returnValue     1   16[COMRAM] enum E355
  2216 ;; Return value:  Size  Location     Type
  2217 ;;                  1    wreg      enum E355
  2218 ;; Registers used:
  2219 ;;		wreg, fsr2l, fsr2h, status,2, status,0, pcl, pclath, pclatu, tosl, tblptrl, tblptrh, tblptru, prodl, prodh, cstack
  2220 ;; Tracked objects:
  2221 ;;		On entry : 0/0
  2222 ;;		On exit  : 0/0
  2223 ;;		Unchanged: 0/0
  2224 ;; Data sizes:     COMRAM   BANK0   BANK1   BANK2   BANK3   BANK4   BANK5   BANK6   BANK7   BANK8   BANK9  BANK10  BANK1
      +1  BANK12  BANK13  BANK14  BANK15
  2225 ;;      Params:         0       0       0       0       0       0       0       0       0       0       0       0       
      +0       0       0       0       0
  2226 ;;      Locals:         2       0       0       0       0       0       0       0       0       0       0       0       
      +0       0       0       0       0
  2227 ;;      Temps:          0       0       0       0       0       0       0       0       0       0       0       0       
      +0       0       0       0       0
  2228 ;;      Totals:         2       0       0       0       0       0       0       0       0       0       0       0       
      +0       0       0       0       0
  2229 ;;Total ram usage:        2 bytes
  2230 ;; Hardware stack levels used: 1
  2231 ;; Hardware stack levels required when called: 6
  2232 ;; This function calls:
  2233 ;;		_I2C1_MasterStart
  2234 ;;		_I2C1_Poller
  2235 ;; This function is called by:
  2236 ;;		_I2C1_MasterWrite
  2237 ;;		_I2C1_MasterRead
  2238 ;; This function uses a non-reentrant model
  2239 ;;
  2240                           
  2241                           	psect	text19
  2242   0017E0                     __ptext19:
  2243                           	callstack 0
  2244   0017E0                     _I2C1_MasterOperation:
  2245                           	callstack 21
  2246                           
  2247                           ;incstack = 0
  2248                           ;I2C1_MasterOperation@read stored from wreg
  2249   0017E0  6E3F               	movwf	I2C1_MasterOperation@read^0,c
  2250   0017E2                     
  2251                           ;mcc_generated_files/i2c1_master.c: 224: i2c1_error_t I2C1_MasterOperation(_Bool read);m
      +                          cc_generated_files/i2c1_master.c: 225: {;mcc_generated_files/i2c1_master.c: 226:     i2c
      +                          1_error_t returnValue = I2C1_BUSY;
  2252   0017E2  0E01               	movlw	1
  2253   0017E4  6E40               	movwf	I2C1_MasterOperation@returnValue^0,c
  2254   0017E6                     
  2255                           ;mcc_generated_files/i2c1_master.c: 227:     if(!I2C1_Status.busy)
  2256   0017E6  B22A               	btfsc	(_I2C1_Status+41)^0,1,c
  2257   0017E8  EFF8  F00B         	goto	u631
  2258   0017EC  EFFA  F00B         	goto	u630
  2259   0017F0                     u631:
  2260   0017F0  EF0F  F00C         	goto	l2497
  2261   0017F4                     u630:
  2262   0017F4                     
  2263                           ;mcc_generated_files/i2c1_master.c: 228:     {;mcc_generated_files/i2c1_master.c: 229:  
      +                                 I2C1_Status.busy = 1;
  2264   0017F4  822A               	bsf	(_I2C1_Status+41)^0,1,c
  2265   0017F6                     
  2266                           ;mcc_generated_files/i2c1_master.c: 230:         returnValue = I2C1_NOERR;
  2267   0017F6  0E00               	movlw	0
  2268   0017F8  6E40               	movwf	I2C1_MasterOperation@returnValue^0,c
  2269   0017FA                     
  2270                           ;mcc_generated_files/i2c1_master.c: 232:         if(read)
  2271   0017FA  503F               	movf	I2C1_MasterOperation@read^0,w,c
  2272   0017FC  B4D8               	btfsc	status,2,c
  2273   0017FE  EF03  F00C         	goto	u641
  2274   001802  EF05  F00C         	goto	u640
  2275   001806                     u641:
  2276   001806  EF09  F00C         	goto	l2491
  2277   00180A                     u640:
  2278   00180A                     
  2279                           ;mcc_generated_files/i2c1_master.c: 233:         {;mcc_generated_files/i2c1_master.c: 23
      +                          4:             I2C1_Status.state = I2C1_SEND_ADR_READ;
  2280   00180A  0E01               	movlw	1
  2281   00180C  6E28               	movwf	(_I2C1_Status+39)^0,c
  2282                           
  2283                           ;mcc_generated_files/i2c1_master.c: 235:         }
  2284   00180E  EF0B  F00C         	goto	l2493
  2285   001812                     l2491:
  2286                           
  2287                           ;mcc_generated_files/i2c1_master.c: 237:         {;mcc_generated_files/i2c1_master.c: 23
      +                          8:             I2C1_Status.state = I2C1_SEND_ADR_WRITE;
  2288   001812  0E02               	movlw	2
  2289   001814  6E28               	movwf	(_I2C1_Status+39)^0,c
  2290   001816                     l2493:
  2291                           
  2292                           ;mcc_generated_files/i2c1_master.c: 240:         I2C1_MasterStart();
  2293   001816  ECE7  F00D         	call	_I2C1_MasterStart	;wreg free
  2294   00181A                     
  2295                           ;mcc_generated_files/i2c1_master.c: 241:         I2C1_Poller();
  2296   00181A  EC27  F00D         	call	_I2C1_Poller	;wreg free
  2297   00181E                     l2497:
  2298                           
  2299                           ;mcc_generated_files/i2c1_master.c: 243:     return returnValue;
  2300   00181E  5040               	movf	I2C1_MasterOperation@returnValue^0,w,c
  2301   001820  0012               	return		;funcret
  2302   001822                     __end_of_I2C1_MasterOperation:
  2303                           	callstack 0
  2304                           
  2305 ;; *************** function _I2C1_Poller *****************
  2306 ;; Defined at:
  2307 ;;		line 312 in file "mcc_generated_files/i2c1_master.c"
  2308 ;; Parameters:    Size  Location     Type
  2309 ;;		None
  2310 ;; Auto vars:     Size  Location     Type
  2311 ;;		None
  2312 ;; Return value:  Size  Location     Type
  2313 ;;                  1    wreg      void 
  2314 ;; Registers used:
  2315 ;;		wreg, fsr2l, fsr2h, status,2, status,0, pcl, pclath, pclatu, tosl, tblptrl, tblptrh, tblptru, prodl, prodh, cstack
  2316 ;; Tracked objects:
  2317 ;;		On entry : 0/0
  2318 ;;		On exit  : 0/0
  2319 ;;		Unchanged: 0/0
  2320 ;; Data sizes:     COMRAM   BANK0   BANK1   BANK2   BANK3   BANK4   BANK5   BANK6   BANK7   BANK8   BANK9  BANK10  BANK1
      +1  BANK12  BANK13  BANK14  BANK15
  2321 ;;      Params:         0       0       0       0       0       0       0       0       0       0       0       0       
      +0       0       0       0       0
  2322 ;;      Locals:         0       0       0       0       0       0       0       0       0       0       0       0       
      +0       0       0       0       0
  2323 ;;      Temps:          0       0       0       0       0       0       0       0       0       0       0       0       
      +0       0       0       0       0
  2324 ;;      Totals:         0       0       0       0       0       0       0       0       0       0       0       0       
      +0       0       0       0       0
  2325 ;;Total ram usage:        0 bytes
  2326 ;; Hardware stack levels used: 1
  2327 ;; Hardware stack levels required when called: 5
  2328 ;; This function calls:
  2329 ;;		_I2C1_MasterFsm
  2330 ;;		_I2C1_MasterWaitForEvent
  2331 ;; This function is called by:
  2332 ;;		_I2C1_MasterOperation
  2333 ;; This function uses a non-reentrant model
  2334 ;;
  2335                           
  2336                           	psect	text20
  2337   001A4E                     __ptext20:
  2338                           	callstack 0
  2339   001A4E                     _I2C1_Poller:
  2340                           	callstack 21
  2341   001A4E                     
  2342                           ;mcc_generated_files/i2c1_master.c: 314:     while(I2C1_Status.busy)
  2343   001A4E  EF2D  F00D         	goto	l2465
  2344   001A52                     l2461:
  2345                           
  2346                           ;mcc_generated_files/i2c1_master.c: 315:     {;mcc_generated_files/i2c1_master.c: 316:  
      +                                 I2C1_MasterWaitForEvent();
  2347   001A52  EC75  F00D         	call	_I2C1_MasterWaitForEvent	;wreg free
  2348   001A56                     
  2349                           ;mcc_generated_files/i2c1_master.c: 317:         I2C1_MasterFsm();
  2350   001A56  EC77  F00B         	call	_I2C1_MasterFsm	;wreg free
  2351   001A5A                     l2465:
  2352                           
  2353                           ;mcc_generated_files/i2c1_master.c: 314:     while(I2C1_Status.busy)
  2354   001A5A  B22A               	btfsc	(_I2C1_Status+41)^0,1,c
  2355   001A5C  EF32  F00D         	goto	u611
  2356   001A60  EF34  F00D         	goto	u610
  2357   001A64                     u611:
  2358   001A64  EF29  F00D         	goto	l2461
  2359   001A68                     u610:
  2360   001A68  0012               	return		;funcret
  2361   001A6A                     __end_of_I2C1_Poller:
  2362                           	callstack 0
  2363                           
  2364 ;; *************** function _I2C1_MasterWaitForEvent *****************
  2365 ;; Defined at:
  2366 ;;		line 650 in file "mcc_generated_files/i2c1_master.c"
  2367 ;; Parameters:    Size  Location     Type
  2368 ;;		None
  2369 ;; Auto vars:     Size  Location     Type
  2370 ;;		None
  2371 ;; Return value:  Size  Location     Type
  2372 ;;                  1    wreg      void 
  2373 ;; Registers used:
  2374 ;;		None
  2375 ;; Tracked objects:
  2376 ;;		On entry : 0/0
  2377 ;;		On exit  : 0/0
  2378 ;;		Unchanged: 0/0
  2379 ;; Data sizes:     COMRAM   BANK0   BANK1   BANK2   BANK3   BANK4   BANK5   BANK6   BANK7   BANK8   BANK9  BANK10  BANK1
      +1  BANK12  BANK13  BANK14  BANK15
  2380 ;;      Params:         0       0       0       0       0       0       0       0       0       0       0       0       
      +0       0       0       0       0
  2381 ;;      Locals:         0       0       0       0       0       0       0       0       0       0       0       0       
      +0       0       0       0       0
  2382 ;;      Temps:          0       0       0       0       0       0       0       0       0       0       0       0       
      +0       0       0       0       0
  2383 ;;      Totals:         0       0       0       0       0       0       0       0       0       0       0       0       
      +0       0       0       0       0
  2384 ;;Total ram usage:        0 bytes
  2385 ;; Hardware stack levels used: 1
  2386 ;; This function calls:
  2387 ;;		Nothing
  2388 ;; This function is called by:
  2389 ;;		_I2C1_Poller
  2390 ;; This function uses a non-reentrant model
  2391 ;;
  2392                           
  2393                           	psect	text21
  2394   001AEA                     __ptext21:
  2395                           	callstack 0
  2396   001AEA                     _I2C1_MasterWaitForEvent:
  2397                           	callstack 25
  2398   001AEA                     l529:
  2399                           
  2400                           ;mcc_generated_files/i2c1_master.c: 653:     {;mcc_generated_files/i2c1_master.c: 654:  
      +                                 if(PIR1bits.SSP1IF)
  2401   001AEA  A69E               	btfss	158,3,c	;volatile
  2402   001AEC  EF7A  F00D         	goto	u571
  2403   001AF0  EF7C  F00D         	goto	u570
  2404   001AF4                     u571:
  2405   001AF4  EF75  F00D         	goto	l529
  2406   001AF8                     u570:
  2407   001AF8  0012               	return		;funcret
  2408   001AFA                     __end_of_I2C1_MasterWaitForEvent:
  2409                           	callstack 0
  2410                           
  2411 ;; *************** function _I2C1_MasterFsm *****************
  2412 ;; Defined at:
  2413 ;;		line 321 in file "mcc_generated_files/i2c1_master.c"
  2414 ;; Parameters:    Size  Location     Type
  2415 ;;		None
  2416 ;; Auto vars:     Size  Location     Type
  2417 ;;		None
  2418 ;; Return value:  Size  Location     Type
  2419 ;;                  1    wreg      void 
  2420 ;; Registers used:
  2421 ;;		wreg, fsr2l, fsr2h, status,2, status,0, pcl, pclath, pclatu, tosl, tblptrl, tblptrh, tblptru, prodl, prodh, cstack
  2422 ;; Tracked objects:
  2423 ;;		On entry : 0/0
  2424 ;;		On exit  : 0/0
  2425 ;;		Unchanged: 0/0
  2426 ;; Data sizes:     COMRAM   BANK0   BANK1   BANK2   BANK3   BANK4   BANK5   BANK6   BANK7   BANK8   BANK9  BANK10  BANK1
      +1  BANK12  BANK13  BANK14  BANK15
  2427 ;;      Params:         0       0       0       0       0       0       0       0       0       0       0       0       
      +0       0       0       0       0
  2428 ;;      Locals:         0       0       0       0       0       0       0       0       0       0       0       0       
      +0       0       0       0       0
  2429 ;;      Temps:          0       0       0       0       0       0       0       0       0       0       0       0       
      +0       0       0       0       0
  2430 ;;      Totals:         0       0       0       0       0       0       0       0       0       0       0       0       
      +0       0       0       0       0
  2431 ;;Total ram usage:        0 bytes
  2432 ;; Hardware stack levels used: 1
  2433 ;; Hardware stack levels required when called: 4
  2434 ;; This function calls:
  2435 ;;		_I2C1_DO_ADDRESS_NACK
  2436 ;;		_I2C1_DO_IDLE
  2437 ;;		_I2C1_DO_RCEN
  2438 ;;		_I2C1_DO_RESET
  2439 ;;		_I2C1_DO_RX
  2440 ;;		_I2C1_DO_RX_ACK
  2441 ;;		_I2C1_DO_RX_NACK_RESTART
  2442 ;;		_I2C1_DO_RX_NACK_STOP
  2443 ;;		_I2C1_DO_SEND_ADR_READ
  2444 ;;		_I2C1_DO_SEND_ADR_WRITE
  2445 ;;		_I2C1_DO_SEND_RESTART
  2446 ;;		_I2C1_DO_SEND_RESTART_READ
  2447 ;;		_I2C1_DO_SEND_RESTART_WRITE
  2448 ;;		_I2C1_DO_SEND_STOP
  2449 ;;		_I2C1_DO_TX
  2450 ;;		_I2C1_DO_TX_EMPTY
  2451 ;;		_I2C1_MasterClearIrq
  2452 ;;		_I2C1_MasterIsNack
  2453 ;; This function is called by:
  2454 ;;		_I2C1_Poller
  2455 ;; This function uses a non-reentrant model
  2456 ;;
  2457                           
  2458                           	psect	text22
  2459   0016EE                     __ptext22:
  2460                           	callstack 0
  2461   0016EE                     _I2C1_MasterFsm:
  2462                           	callstack 21
  2463   0016EE                     
  2464                           ;mcc_generated_files/i2c1_master.c: 323:     I2C1_MasterClearIrq();
  2465   0016EE  ECED  F00D         	call	_I2C1_MasterClearIrq	;wreg free
  2466   0016F2                     
  2467                           ;mcc_generated_files/i2c1_master.c: 325:     if(I2C1_Status.addressNackCheck && I2C1_Mas
      +                          terIsNack())
  2468   0016F2  A02A               	btfss	(_I2C1_Status+41)^0,0,c
  2469   0016F4  EF7E  F00B         	goto	u581
  2470   0016F8  EF80  F00B         	goto	u580
  2471   0016FC                     u581:
  2472   0016FC  EF8C  F00B         	goto	l2455
  2473   001700                     u580:
  2474   001700  EC62  F00D         	call	_I2C1_MasterIsNack	;wreg free
  2475   001704  0900               	iorlw	0
  2476   001706  B4D8               	btfsc	status,2,c
  2477   001708  EF88  F00B         	goto	u591
  2478   00170C  EF8A  F00B         	goto	u590
  2479   001710                     u591:
  2480   001710  EF8C  F00B         	goto	l2455
  2481   001714                     u590:
  2482   001714                     
  2483                           ;mcc_generated_files/i2c1_master.c: 326:     {;mcc_generated_files/i2c1_master.c: 327:  
      +                                 I2C1_Status.state = I2C1_ADDRESS_NACK;
  2484   001714  0E0F               	movlw	15
  2485   001716  6E28               	movwf	(_I2C1_Status+39)^0,c
  2486   001718                     l2455:
  2487                           
  2488                           ;mcc_generated_files/i2c1_master.c: 329:     I2C1_Status.state = i2c1_fsmStateTable[I2C1
      +                          _Status.state]();
  2489   001718  5028               	movf	(_I2C1_Status+39)^0,w,c
  2490   00171A  0D03               	mullw	3
  2491   00171C  0E01               	movlw	low _i2c1_fsmStateTable
  2492   00171E  24F3               	addwf	243,w,c
  2493   001720  6EF6               	movwf	tblptrl,c
  2494   001722  0E10               	movlw	high _i2c1_fsmStateTable
  2495   001724  20F4               	addwfc	244,w,c
  2496   001726  6EF7               	movwf	tblptrh,c
  2497   001728                     	if	1	;There are 3 active tblptr bytes
  2498   001728  6AF8               	clrf	tblptru,c
  2499   00172A  0E00               	movlw	low (__mediumconst shr (0+16))
  2500   00172C  22F8               	addwfc	tblptru,f,c
  2501   00172E                     	endif
  2502   00172E  D802               	call	u608
  2503   001730  EFA7  F00B         	goto	u609
  2504   001734                     u608:
  2505   001734  0005               	push	
  2506   001736  6EFA               	movwf	pclath,c
  2507   001738  0009               	tblrd		*+
  2508   00173A  50F5               	movf	tablat,w,c
  2509   00173C  6EFD               	movwf	tosl,c
  2510   00173E  0009               	tblrd		*+
  2511   001740  50F5               	movf	tablat,w,c
  2512   001742  6EFE               	movwf	tosh,c
  2513   001744  0009               	tblrd		*+
  2514   001746  50F5               	movf	tablat,w,c
  2515   001748  6EFF               	movwf	tosu,c
  2516   00174A  50FA               	movf	pclath,w,c
  2517   00174C  0012               	return		;indir
  2518   00174E                     u609:
  2519   00174E  6E28               	movwf	(_I2C1_Status+39)^0,c
  2520   001750  0012               	return		;funcret
  2521   001752                     __end_of_I2C1_MasterFsm:
  2522                           	callstack 0
  2523                           
  2524 ;; *************** function _I2C1_DO_ADDRESS_NACK *****************
  2525 ;; Defined at:
  2526 ;;		line 500 in file "mcc_generated_files/i2c1_master.c"
  2527 ;; Parameters:    Size  Location     Type
  2528 ;;		None
  2529 ;; Auto vars:     Size  Location     Type
  2530 ;;		None
  2531 ;; Return value:  Size  Location     Type
  2532 ;;                  1    wreg      enum E6874
  2533 ;; Registers used:
  2534 ;;		wreg, fsr2l, fsr2h, status,2, status,0, pcl, pclath, pclatu, tosl, prodl, prodh, cstack
  2535 ;; Tracked objects:
  2536 ;;		On entry : 0/0
  2537 ;;		On exit  : 0/0
  2538 ;;		Unchanged: 0/0
  2539 ;; Data sizes:     COMRAM   BANK0   BANK1   BANK2   BANK3   BANK4   BANK5   BANK6   BANK7   BANK8   BANK9  BANK10  BANK1
      +1  BANK12  BANK13  BANK14  BANK15
  2540 ;;      Params:         0       0       0       0       0       0       0       0       0       0       0       0       
      +0       0       0       0       0
  2541 ;;      Locals:         0       0       0       0       0       0       0       0       0       0       0       0       
      +0       0       0       0       0
  2542 ;;      Temps:          2       0       0       0       0       0       0       0       0       0       0       0       
      +0       0       0       0       0
  2543 ;;      Totals:         2       0       0       0       0       0       0       0       0       0       0       0       
      +0       0       0       0       0
  2544 ;;Total ram usage:        2 bytes
  2545 ;; Hardware stack levels used: 1
  2546 ;; Hardware stack levels required when called: 3
  2547 ;; This function calls:
  2548 ;;		Absolute function
  2549 ;;		_I2C1_CallbackReturnReset
  2550 ;;		_I2C1_CallbackReturnStop
  2551 ;;		_I2C1_DO_SEND_RESTART
  2552 ;;		_I2C1_DO_SEND_STOP
  2553 ;;		_rd1RegCompleteHandler
  2554 ;;		_rd2RegCompleteHandler
  2555 ;;		_rdBlkRegCompleteHandler
  2556 ;;		_wr1RegCompleteHandler
  2557 ;;		_wr2RegCompleteHandler
  2558 ;; This function is called by:
  2559 ;;		_I2C1_MasterFsm
  2560 ;; This function uses a non-reentrant model
  2561 ;;
  2562                           
  2563                           	psect	text23
  2564   001684                     __ptext23:
  2565                           	callstack 0
  2566   001684                     _I2C1_DO_ADDRESS_NACK:
  2567                           	callstack 21
  2568   001684                     
  2569                           ;mcc_generated_files/i2c1_master.c: 502:     I2C1_Status.addressNackCheck = 0;
  2570   001684  902A               	bcf	(_I2C1_Status+41)^0,0,c
  2571   001686                     
  2572                           ;mcc_generated_files/i2c1_master.c: 503:     I2C1_Status.error = I2C1_FAIL;
  2573   001686  0E02               	movlw	2
  2574   001688  6E29               	movwf	(_I2C1_Status+40)^0,c
  2575                           
  2576                           ;mcc_generated_files/i2c1_master.c: 504:     switch(I2C1_Status.callbackTable[I2C1_ADDR_
      +                          NACK](I2C1_Status.callbackPayload[I2C1_ADDR_NACK]))
  2577   00168A  EF4F  F00B         	goto	l2439
  2578   00168E                     l2429:
  2579                           
  2580                           ;mcc_generated_files/i2c1_master.c: 508:             return I2C1_DO_SEND_RESTART();
  2581   00168E  ECC3  F00D         	call	_I2C1_DO_SEND_RESTART	;wreg free
  2582   001692  EF76  F00B         	goto	l451
  2583   001696                     l2433:
  2584                           
  2585                           ;mcc_generated_files/i2c1_master.c: 510:             return I2C1_DO_SEND_STOP();
  2586   001696  ECBF  F00D         	call	_I2C1_DO_SEND_STOP	;wreg free
  2587   00169A  EF76  F00B         	goto	l451
  2588   00169E                     l2439:
  2589   00169E  C017  F03B         	movff	_I2C1_Status+22,I2C1_CallbackReturnReset@funPtr
  2590   0016A2  C018  F03C         	movff	_I2C1_Status+23,I2C1_CallbackReturnReset@funPtr+1
  2591   0016A6  EE20  F007         	lfsr	2,_I2C1_Status+6
  2592   0016AA  D802               	call	u568
  2593   0016AC  EF62  F00B         	goto	u569
  2594   0016B0                     u568:
  2595   0016B0  0005               	push	
  2596   0016B2  6EFA               	movwf	pclath,c
  2597   0016B4  50DE               	movf	postinc2,w,c
  2598   0016B6  6EFD               	movwf	tosl,c
  2599   0016B8  50DE               	movf	postinc2,w,c
  2600   0016BA  6EFE               	movwf	tosh,c
  2601   0016BC  50DE               	movf	postinc2,w,c
  2602   0016BE  6EFF               	movwf	tosu,c
  2603   0016C0  50FA               	movf	pclath,w,c
  2604   0016C2  0012               	return		;indir
  2605   0016C4                     u569:
  2606   0016C4  6E3D               	movwf	??_I2C1_DO_ADDRESS_NACK^0,c
  2607   0016C6  6A3E               	clrf	(??_I2C1_DO_ADDRESS_NACK+1)^0,c
  2608                           
  2609                           ; Switch on 2 bytes has been partitioned into a top level switch of size 1, and 1 sub-sw
      +                          itches
  2610                           ; Switch size 1, requested type "simple"
  2611                           ; Number of cases is 1, Range of values is 0 to 0
  2612                           ; switch strategies available:
  2613                           ; Name         Instructions Cycles
  2614                           ; simple_byte            4     3 (average)
  2615                           ;	Chosen strategy is simple_byte
  2616   0016C8  503E               	movf	(??_I2C1_DO_ADDRESS_NACK+1)^0,w,c
  2617   0016CA  0A00               	xorlw	0	; case 0
  2618   0016CC  B4D8               	btfsc	status,2,c
  2619   0016CE  EF6B  F00B         	goto	l2927
  2620   0016D2  EF4B  F00B         	goto	l2433
  2621   0016D6                     l2927:
  2622                           
  2623                           ; Switch size 1, requested type "simple"
  2624                           ; Number of cases is 2, Range of values is 2 to 3
  2625                           ; switch strategies available:
  2626                           ; Name         Instructions Cycles
  2627                           ; simple_byte            7     4 (average)
  2628                           ;	Chosen strategy is simple_byte
  2629   0016D6  503D               	movf	??_I2C1_DO_ADDRESS_NACK^0,w,c
  2630   0016D8  0A02               	xorlw	2	; case 2
  2631   0016DA  B4D8               	btfsc	status,2,c
  2632   0016DC  EF47  F00B         	goto	l2429
  2633   0016E0  0A01               	xorlw	1	; case 3
  2634   0016E2  B4D8               	btfsc	status,2,c
  2635   0016E4  EF47  F00B         	goto	l2429
  2636   0016E8  EF4B  F00B         	goto	l2433
  2637   0016EC                     l451:
  2638   0016EC  0012               	return		;funcret
  2639   0016EE                     __end_of_I2C1_DO_ADDRESS_NACK:
  2640                           	callstack 0
  2641                           
  2642 ;; *************** function _I2C1_DO_RESET *****************
  2643 ;; Defined at:
  2644 ;;		line 494 in file "mcc_generated_files/i2c1_master.c"
  2645 ;; Parameters:    Size  Location     Type
  2646 ;;		None
  2647 ;; Auto vars:     Size  Location     Type
  2648 ;;		None
  2649 ;; Return value:  Size  Location     Type
  2650 ;;                  1    wreg      enum E6874
  2651 ;; Registers used:
  2652 ;;		wreg, status,2
  2653 ;; Tracked objects:
  2654 ;;		On entry : 0/0
  2655 ;;		On exit  : 0/0
  2656 ;;		Unchanged: 0/0
  2657 ;; Data sizes:     COMRAM   BANK0   BANK1   BANK2   BANK3   BANK4   BANK5   BANK6   BANK7   BANK8   BANK9  BANK10  BANK1
      +1  BANK12  BANK13  BANK14  BANK15
  2658 ;;      Params:         0       0       0       0       0       0       0       0       0       0       0       0       
      +0       0       0       0       0
  2659 ;;      Locals:         0       0       0       0       0       0       0       0       0       0       0       0       
      +0       0       0       0       0
  2660 ;;      Temps:          0       0       0       0       0       0       0       0       0       0       0       0       
      +0       0       0       0       0
  2661 ;;      Totals:         0       0       0       0       0       0       0       0       0       0       0       0       
      +0       0       0       0       0
  2662 ;;Total ram usage:        0 bytes
  2663 ;; Hardware stack levels used: 1
  2664 ;; This function calls:
  2665 ;;		Nothing
  2666 ;; This function is called by:
  2667 ;;		_I2C1_MasterFsm
  2668 ;; This function uses a non-reentrant model
  2669 ;;
  2670                           
  2671                           	psect	text24
  2672   001B40                     __ptext24:
  2673                           	callstack 0
  2674   001B40                     _I2C1_DO_RESET:
  2675                           	callstack 24
  2676   001B40                     
  2677                           ;mcc_generated_files/i2c1_master.c: 496:     I2C1_Status.busy = 0;
  2678   001B40  922A               	bcf	(_I2C1_Status+41)^0,1,c
  2679   001B42                     
  2680                           ;mcc_generated_files/i2c1_master.c: 497:     I2C1_Status.error = I2C1_NOERR;
  2681   001B42  0E00               	movlw	0
  2682   001B44  6E29               	movwf	(_I2C1_Status+40)^0,c
  2683   001B46                     
  2684                           ;mcc_generated_files/i2c1_master.c: 498:     return I2C1_RESET;
  2685   001B46  0E0E               	movlw	14
  2686   001B48  0012               	return		;funcret
  2687   001B4A                     __end_of_I2C1_DO_RESET:
  2688                           	callstack 0
  2689                           
  2690 ;; *************** function _I2C1_DO_RX_NACK_RESTART *****************
  2691 ;; Defined at:
  2692 ;;		line 488 in file "mcc_generated_files/i2c1_master.c"
  2693 ;; Parameters:    Size  Location     Type
  2694 ;;		None
  2695 ;; Auto vars:     Size  Location     Type
  2696 ;;		None
  2697 ;; Return value:  Size  Location     Type
  2698 ;;                  1    wreg      enum E6874
  2699 ;; Registers used:
  2700 ;;		wreg, cstack
  2701 ;; Tracked objects:
  2702 ;;		On entry : 0/0
  2703 ;;		On exit  : 0/0
  2704 ;;		Unchanged: 0/0
  2705 ;; Data sizes:     COMRAM   BANK0   BANK1   BANK2   BANK3   BANK4   BANK5   BANK6   BANK7   BANK8   BANK9  BANK10  BANK1
      +1  BANK12  BANK13  BANK14  BANK15
  2706 ;;      Params:         0       0       0       0       0       0       0       0       0       0       0       0       
      +0       0       0       0       0
  2707 ;;      Locals:         0       0       0       0       0       0       0       0       0       0       0       0       
      +0       0       0       0       0
  2708 ;;      Temps:          0       0       0       0       0       0       0       0       0       0       0       0       
      +0       0       0       0       0
  2709 ;;      Totals:         0       0       0       0       0       0       0       0       0       0       0       0       
      +0       0       0       0       0
  2710 ;;Total ram usage:        0 bytes
  2711 ;; Hardware stack levels used: 1
  2712 ;; Hardware stack levels required when called: 1
  2713 ;; This function calls:
  2714 ;;		_I2C1_MasterSendNack
  2715 ;; This function is called by:
  2716 ;;		_I2C1_DO_RX
  2717 ;;		_I2C1_MasterFsm
  2718 ;; This function uses a non-reentrant model
  2719 ;;
  2720                           
  2721                           	psect	text25
  2722   001B66                     __ptext25:
  2723                           	callstack 0
  2724   001B66                     _I2C1_DO_RX_NACK_RESTART:
  2725                           	callstack 23
  2726   001B66                     
  2727                           ;mcc_generated_files/i2c1_master.c: 490:     I2C1_MasterSendNack();
  2728   001B66  ECD6  F00D         	call	_I2C1_MasterSendNack	;wreg free
  2729   001B6A                     
  2730                           ;mcc_generated_files/i2c1_master.c: 491:     return I2C1_SEND_RESTART;
  2731   001B6A  0E09               	movlw	9
  2732   001B6C  0012               	return		;funcret
  2733   001B6E                     __end_of_I2C1_DO_RX_NACK_RESTART:
  2734                           	callstack 0
  2735                           
  2736 ;; *************** function _I2C1_DO_RX_NACK_STOP *****************
  2737 ;; Defined at:
  2738 ;;		line 482 in file "mcc_generated_files/i2c1_master.c"
  2739 ;; Parameters:    Size  Location     Type
  2740 ;;		None
  2741 ;; Auto vars:     Size  Location     Type
  2742 ;;		None
  2743 ;; Return value:  Size  Location     Type
  2744 ;;                  1    wreg      enum E6874
  2745 ;; Registers used:
  2746 ;;		wreg, cstack
  2747 ;; Tracked objects:
  2748 ;;		On entry : 0/0
  2749 ;;		On exit  : 0/0
  2750 ;;		Unchanged: 0/0
  2751 ;; Data sizes:     COMRAM   BANK0   BANK1   BANK2   BANK3   BANK4   BANK5   BANK6   BANK7   BANK8   BANK9  BANK10  BANK1
      +1  BANK12  BANK13  BANK14  BANK15
  2752 ;;      Params:         0       0       0       0       0       0       0       0       0       0       0       0       
      +0       0       0       0       0
  2753 ;;      Locals:         0       0       0       0       0       0       0       0       0       0       0       0       
      +0       0       0       0       0
  2754 ;;      Temps:          0       0       0       0       0       0       0       0       0       0       0       0       
      +0       0       0       0       0
  2755 ;;      Totals:         0       0       0       0       0       0       0       0       0       0       0       0       
      +0       0       0       0       0
  2756 ;;Total ram usage:        0 bytes
  2757 ;; Hardware stack levels used: 1
  2758 ;; Hardware stack levels required when called: 1
  2759 ;; This function calls:
  2760 ;;		_I2C1_MasterSendNack
  2761 ;; This function is called by:
  2762 ;;		_I2C1_DO_RX
  2763 ;;		_I2C1_MasterFsm
  2764 ;; This function uses a non-reentrant model
  2765 ;;
  2766                           
  2767                           	psect	text26
  2768   001B6E                     __ptext26:
  2769                           	callstack 0
  2770   001B6E                     _I2C1_DO_RX_NACK_STOP:
  2771                           	callstack 23
  2772   001B6E                     
  2773                           ;mcc_generated_files/i2c1_master.c: 484:     I2C1_MasterSendNack();
  2774   001B6E  ECD6  F00D         	call	_I2C1_MasterSendNack	;wreg free
  2775   001B72                     
  2776                           ;mcc_generated_files/i2c1_master.c: 485:     return I2C1_SEND_STOP;
  2777   001B72  0E0A               	movlw	10
  2778   001B74  0012               	return		;funcret
  2779   001B76                     __end_of_I2C1_DO_RX_NACK_STOP:
  2780                           	callstack 0
  2781                           
  2782 ;; *************** function _I2C1_DO_RX_ACK *****************
  2783 ;; Defined at:
  2784 ;;		line 475 in file "mcc_generated_files/i2c1_master.c"
  2785 ;; Parameters:    Size  Location     Type
  2786 ;;		None
  2787 ;; Auto vars:     Size  Location     Type
  2788 ;;		None
  2789 ;; Return value:  Size  Location     Type
  2790 ;;                  1    wreg      enum E6874
  2791 ;; Registers used:
  2792 ;;		wreg, cstack
  2793 ;; Tracked objects:
  2794 ;;		On entry : 0/0
  2795 ;;		On exit  : 0/0
  2796 ;;		Unchanged: 0/0
  2797 ;; Data sizes:     COMRAM   BANK0   BANK1   BANK2   BANK3   BANK4   BANK5   BANK6   BANK7   BANK8   BANK9  BANK10  BANK1
      +1  BANK12  BANK13  BANK14  BANK15
  2798 ;;      Params:         0       0       0       0       0       0       0       0       0       0       0       0       
      +0       0       0       0       0
  2799 ;;      Locals:         0       0       0       0       0       0       0       0       0       0       0       0       
      +0       0       0       0       0
  2800 ;;      Temps:          0       0       0       0       0       0       0       0       0       0       0       0       
      +0       0       0       0       0
  2801 ;;      Totals:         0       0       0       0       0       0       0       0       0       0       0       0       
      +0       0       0       0       0
  2802 ;;Total ram usage:        0 bytes
  2803 ;; Hardware stack levels used: 1
  2804 ;; Hardware stack levels required when called: 1
  2805 ;; This function calls:
  2806 ;;		_I2C1_MasterSendAck
  2807 ;; This function is called by:
  2808 ;;		_I2C1_MasterFsm
  2809 ;; This function uses a non-reentrant model
  2810 ;;
  2811                           
  2812                           	psect	text27
  2813   001B76                     __ptext27:
  2814                           	callstack 0
  2815   001B76                     _I2C1_DO_RX_ACK:
  2816                           	callstack 23
  2817   001B76                     
  2818                           ;mcc_generated_files/i2c1_master.c: 477:     I2C1_MasterSendAck();
  2819   001B76  ECD3  F00D         	call	_I2C1_MasterSendAck	;wreg free
  2820   001B7A                     
  2821                           ;mcc_generated_files/i2c1_master.c: 478:     return I2C1_RCEN;
  2822   001B7A  0E05               	movlw	5
  2823   001B7C  0012               	return		;funcret
  2824   001B7E                     __end_of_I2C1_DO_RX_ACK:
  2825                           	callstack 0
  2826                           
  2827 ;; *************** function _I2C1_DO_SEND_STOP *****************
  2828 ;; Defined at:
  2829 ;;		line 469 in file "mcc_generated_files/i2c1_master.c"
  2830 ;; Parameters:    Size  Location     Type
  2831 ;;		None
  2832 ;; Auto vars:     Size  Location     Type
  2833 ;;		None
  2834 ;; Return value:  Size  Location     Type
  2835 ;;                  1    wreg      enum E6874
  2836 ;; Registers used:
  2837 ;;		wreg, cstack
  2838 ;; Tracked objects:
  2839 ;;		On entry : 0/0
  2840 ;;		On exit  : 0/0
  2841 ;;		Unchanged: 0/0
  2842 ;; Data sizes:     COMRAM   BANK0   BANK1   BANK2   BANK3   BANK4   BANK5   BANK6   BANK7   BANK8   BANK9  BANK10  BANK1
      +1  BANK12  BANK13  BANK14  BANK15
  2843 ;;      Params:         0       0       0       0       0       0       0       0       0       0       0       0       
      +0       0       0       0       0
  2844 ;;      Locals:         0       0       0       0       0       0       0       0       0       0       0       0       
      +0       0       0       0       0
  2845 ;;      Temps:          0       0       0       0       0       0       0       0       0       0       0       0       
      +0       0       0       0       0
  2846 ;;      Totals:         0       0       0       0       0       0       0       0       0       0       0       0       
      +0       0       0       0       0
  2847 ;;Total ram usage:        0 bytes
  2848 ;; Hardware stack levels used: 1
  2849 ;; Hardware stack levels required when called: 1
  2850 ;; This function calls:
  2851 ;;		_I2C1_MasterStop
  2852 ;; This function is called by:
  2853 ;;		_I2C1_DO_TX
  2854 ;;		_I2C1_DO_TX_EMPTY
  2855 ;;		_I2C1_DO_ADDRESS_NACK
  2856 ;;		_I2C1_MasterFsm
  2857 ;; This function uses a non-reentrant model
  2858 ;;
  2859                           
  2860                           	psect	text28
  2861   001B7E                     __ptext28:
  2862                           	callstack 0
  2863   001B7E                     _I2C1_DO_SEND_STOP:
  2864                           	callstack 22
  2865   001B7E                     
  2866                           ;mcc_generated_files/i2c1_master.c: 471:     I2C1_MasterStop();
  2867   001B7E  ECE3  F00D         	call	_I2C1_MasterStop	;wreg free
  2868   001B82                     
  2869                           ;mcc_generated_files/i2c1_master.c: 472:     return I2C1_IDLE;
  2870   001B82  0E00               	movlw	0
  2871   001B84  0012               	return		;funcret
  2872   001B86                     __end_of_I2C1_DO_SEND_STOP:
  2873                           	callstack 0
  2874                           
  2875 ;; *************** function _I2C1_DO_SEND_RESTART *****************
  2876 ;; Defined at:
  2877 ;;		line 463 in file "mcc_generated_files/i2c1_master.c"
  2878 ;; Parameters:    Size  Location     Type
  2879 ;;		None
  2880 ;; Auto vars:     Size  Location     Type
  2881 ;;		None
  2882 ;; Return value:  Size  Location     Type
  2883 ;;                  1    wreg      enum E6874
  2884 ;; Registers used:
  2885 ;;		wreg, cstack
  2886 ;; Tracked objects:
  2887 ;;		On entry : 0/0
  2888 ;;		On exit  : 0/0
  2889 ;;		Unchanged: 0/0
  2890 ;; Data sizes:     COMRAM   BANK0   BANK1   BANK2   BANK3   BANK4   BANK5   BANK6   BANK7   BANK8   BANK9  BANK10  BANK1
      +1  BANK12  BANK13  BANK14  BANK15
  2891 ;;      Params:         0       0       0       0       0       0       0       0       0       0       0       0       
      +0       0       0       0       0
  2892 ;;      Locals:         0       0       0       0       0       0       0       0       0       0       0       0       
      +0       0       0       0       0
  2893 ;;      Temps:          0       0       0       0       0       0       0       0       0       0       0       0       
      +0       0       0       0       0
  2894 ;;      Totals:         0       0       0       0       0       0       0       0       0       0       0       0       
      +0       0       0       0       0
  2895 ;;Total ram usage:        0 bytes
  2896 ;; Hardware stack levels used: 1
  2897 ;; Hardware stack levels required when called: 1
  2898 ;; This function calls:
  2899 ;;		_I2C1_MasterEnableRestart
  2900 ;; This function is called by:
  2901 ;;		_I2C1_DO_TX_EMPTY
  2902 ;;		_I2C1_DO_ADDRESS_NACK
  2903 ;;		_I2C1_MasterFsm
  2904 ;; This function uses a non-reentrant model
  2905 ;;
  2906                           
  2907                           	psect	text29
  2908   001B86                     __ptext29:
  2909                           	callstack 0
  2910   001B86                     _I2C1_DO_SEND_RESTART:
  2911                           	callstack 22
  2912   001B86                     
  2913                           ;mcc_generated_files/i2c1_master.c: 465:     I2C1_MasterEnableRestart();
  2914   001B86  ECE5  F00D         	call	_I2C1_MasterEnableRestart	;wreg free
  2915   001B8A                     
  2916                           ;mcc_generated_files/i2c1_master.c: 466:     return I2C1_SEND_ADR_READ;
  2917   001B8A  0E01               	movlw	1
  2918   001B8C  0012               	return		;funcret
  2919   001B8E                     __end_of_I2C1_DO_SEND_RESTART:
  2920                           	callstack 0
  2921                           
  2922 ;; *************** function _I2C1_DO_SEND_RESTART_WRITE *****************
  2923 ;; Defined at:
  2924 ;;		line 456 in file "mcc_generated_files/i2c1_master.c"
  2925 ;; Parameters:    Size  Location     Type
  2926 ;;		None
  2927 ;; Auto vars:     Size  Location     Type
  2928 ;;		None
  2929 ;; Return value:  Size  Location     Type
  2930 ;;                  1    wreg      enum E6874
  2931 ;; Registers used:
  2932 ;;		wreg, cstack
  2933 ;; Tracked objects:
  2934 ;;		On entry : 0/0
  2935 ;;		On exit  : 0/0
  2936 ;;		Unchanged: 0/0
  2937 ;; Data sizes:     COMRAM   BANK0   BANK1   BANK2   BANK3   BANK4   BANK5   BANK6   BANK7   BANK8   BANK9  BANK10  BANK1
      +1  BANK12  BANK13  BANK14  BANK15
  2938 ;;      Params:         0       0       0       0       0       0       0       0       0       0       0       0       
      +0       0       0       0       0
  2939 ;;      Locals:         0       0       0       0       0       0       0       0       0       0       0       0       
      +0       0       0       0       0
  2940 ;;      Temps:          0       0       0       0       0       0       0       0       0       0       0       0       
      +0       0       0       0       0
  2941 ;;      Totals:         0       0       0       0       0       0       0       0       0       0       0       0       
      +0       0       0       0       0
  2942 ;;Total ram usage:        0 bytes
  2943 ;; Hardware stack levels used: 1
  2944 ;; Hardware stack levels required when called: 1
  2945 ;; This function calls:
  2946 ;;		_I2C1_MasterEnableRestart
  2947 ;; This function is called by:
  2948 ;;		_I2C1_DO_TX
  2949 ;;		_I2C1_MasterFsm
  2950 ;; This function uses a non-reentrant model
  2951 ;;
  2952                           
  2953                           	psect	text30
  2954   001B8E                     __ptext30:
  2955                           	callstack 0
  2956   001B8E                     _I2C1_DO_SEND_RESTART_WRITE:
  2957                           	callstack 22
  2958   001B8E                     
  2959                           ;mcc_generated_files/i2c1_master.c: 458:     I2C1_MasterEnableRestart();
  2960   001B8E  ECE5  F00D         	call	_I2C1_MasterEnableRestart	;wreg free
  2961   001B92                     
  2962                           ;mcc_generated_files/i2c1_master.c: 459:     return I2C1_SEND_ADR_WRITE;
  2963   001B92  0E02               	movlw	2
  2964   001B94  0012               	return		;funcret
  2965   001B96                     __end_of_I2C1_DO_SEND_RESTART_WRITE:
  2966                           	callstack 0
  2967                           
  2968 ;; *************** function _I2C1_DO_SEND_RESTART_READ *****************
  2969 ;; Defined at:
  2970 ;;		line 450 in file "mcc_generated_files/i2c1_master.c"
  2971 ;; Parameters:    Size  Location     Type
  2972 ;;		None
  2973 ;; Auto vars:     Size  Location     Type
  2974 ;;		None
  2975 ;; Return value:  Size  Location     Type
  2976 ;;                  1    wreg      enum E6874
  2977 ;; Registers used:
  2978 ;;		wreg, cstack
  2979 ;; Tracked objects:
  2980 ;;		On entry : 0/0
  2981 ;;		On exit  : 0/0
  2982 ;;		Unchanged: 0/0
  2983 ;; Data sizes:     COMRAM   BANK0   BANK1   BANK2   BANK3   BANK4   BANK5   BANK6   BANK7   BANK8   BANK9  BANK10  BANK1
      +1  BANK12  BANK13  BANK14  BANK15
  2984 ;;      Params:         0       0       0       0       0       0       0       0       0       0       0       0       
      +0       0       0       0       0
  2985 ;;      Locals:         0       0       0       0       0       0       0       0       0       0       0       0       
      +0       0       0       0       0
  2986 ;;      Temps:          0       0       0       0       0       0       0       0       0       0       0       0       
      +0       0       0       0       0
  2987 ;;      Totals:         0       0       0       0       0       0       0       0       0       0       0       0       
      +0       0       0       0       0
  2988 ;;Total ram usage:        0 bytes
  2989 ;; Hardware stack levels used: 1
  2990 ;; Hardware stack levels required when called: 1
  2991 ;; This function calls:
  2992 ;;		_I2C1_MasterEnableRestart
  2993 ;; This function is called by:
  2994 ;;		_I2C1_DO_TX
  2995 ;;		_I2C1_MasterFsm
  2996 ;; This function uses a non-reentrant model
  2997 ;;
  2998                           
  2999                           	psect	text31
  3000   001B96                     __ptext31:
  3001                           	callstack 0
  3002   001B96                     _I2C1_DO_SEND_RESTART_READ:
  3003                           	callstack 22
  3004   001B96                     
  3005                           ;mcc_generated_files/i2c1_master.c: 452:     I2C1_MasterEnableRestart();
  3006   001B96  ECE5  F00D         	call	_I2C1_MasterEnableRestart	;wreg free
  3007   001B9A                     
  3008                           ;mcc_generated_files/i2c1_master.c: 453:     return I2C1_SEND_ADR_READ;
  3009   001B9A  0E01               	movlw	1
  3010   001B9C  0012               	return		;funcret
  3011   001B9E                     __end_of_I2C1_DO_SEND_RESTART_READ:
  3012                           	callstack 0
  3013                           
  3014 ;; *************** function _I2C1_DO_RCEN *****************
  3015 ;; Defined at:
  3016 ;;		line 402 in file "mcc_generated_files/i2c1_master.c"
  3017 ;; Parameters:    Size  Location     Type
  3018 ;;		None
  3019 ;; Auto vars:     Size  Location     Type
  3020 ;;		None
  3021 ;; Return value:  Size  Location     Type
  3022 ;;                  1    wreg      enum E6874
  3023 ;; Registers used:
  3024 ;;		wreg, cstack
  3025 ;; Tracked objects:
  3026 ;;		On entry : 0/0
  3027 ;;		On exit  : 0/0
  3028 ;;		Unchanged: 0/0
  3029 ;; Data sizes:     COMRAM   BANK0   BANK1   BANK2   BANK3   BANK4   BANK5   BANK6   BANK7   BANK8   BANK9  BANK10  BANK1
      +1  BANK12  BANK13  BANK14  BANK15
  3030 ;;      Params:         0       0       0       0       0       0       0       0       0       0       0       0       
      +0       0       0       0       0
  3031 ;;      Locals:         0       0       0       0       0       0       0       0       0       0       0       0       
      +0       0       0       0       0
  3032 ;;      Temps:          0       0       0       0       0       0       0       0       0       0       0       0       
      +0       0       0       0       0
  3033 ;;      Totals:         0       0       0       0       0       0       0       0       0       0       0       0       
      +0       0       0       0       0
  3034 ;;Total ram usage:        0 bytes
  3035 ;; Hardware stack levels used: 1
  3036 ;; Hardware stack levels required when called: 1
  3037 ;; This function calls:
  3038 ;;		_I2C1_MasterStartRx
  3039 ;; This function is called by:
  3040 ;;		_I2C1_MasterFsm
  3041 ;; This function uses a non-reentrant model
  3042 ;;
  3043                           
  3044                           	psect	text32
  3045   001B4A                     __ptext32:
  3046                           	callstack 0
  3047   001B4A                     _I2C1_DO_RCEN:
  3048                           	callstack 23
  3049   001B4A                     
  3050                           ;mcc_generated_files/i2c1_master.c: 404:     I2C1_Status.addressNackCheck = 0;
  3051   001B4A  902A               	bcf	(_I2C1_Status+41)^0,0,c
  3052   001B4C                     
  3053                           ;mcc_generated_files/i2c1_master.c: 405:     I2C1_MasterStartRx();
  3054   001B4C  ECDD  F00D         	call	_I2C1_MasterStartRx	;wreg free
  3055   001B50                     
  3056                           ;mcc_generated_files/i2c1_master.c: 406:     return I2C1_RX;
  3057   001B50  0E04               	movlw	4
  3058   001B52  0012               	return		;funcret
  3059   001B54                     __end_of_I2C1_DO_RCEN:
  3060                           	callstack 0
  3061                           
  3062 ;; *************** function _I2C1_DO_RX *****************
  3063 ;; Defined at:
  3064 ;;		line 378 in file "mcc_generated_files/i2c1_master.c"
  3065 ;; Parameters:    Size  Location     Type
  3066 ;;		None
  3067 ;; Auto vars:     Size  Location     Type
  3068 ;;		None
  3069 ;; Return value:  Size  Location     Type
  3070 ;;                  1    wreg      enum E6874
  3071 ;; Registers used:
  3072 ;;		wreg, fsr2l, fsr2h, status,2, status,0, pcl, pclath, pclatu, tosl, prodl, prodh, cstack
  3073 ;; Tracked objects:
  3074 ;;		On entry : 0/0
  3075 ;;		On exit  : 0/0
  3076 ;;		Unchanged: 0/0
  3077 ;; Data sizes:     COMRAM   BANK0   BANK1   BANK2   BANK3   BANK4   BANK5   BANK6   BANK7   BANK8   BANK9  BANK10  BANK1
      +1  BANK12  BANK13  BANK14  BANK15
  3078 ;;      Params:         0       0       0       0       0       0       0       0       0       0       0       0       
      +0       0       0       0       0
  3079 ;;      Locals:         0       0       0       0       0       0       0       0       0       0       0       0       
      +0       0       0       0       0
  3080 ;;      Temps:          2       0       0       0       0       0       0       0       0       0       0       0       
      +0       0       0       0       0
  3081 ;;      Totals:         2       0       0       0       0       0       0       0       0       0       0       0       
      +0       0       0       0       0
  3082 ;;Total ram usage:        2 bytes
  3083 ;; Hardware stack levels used: 1
  3084 ;; Hardware stack levels required when called: 3
  3085 ;; This function calls:
  3086 ;;		Absolute function
  3087 ;;		_I2C1_CallbackReturnReset
  3088 ;;		_I2C1_CallbackReturnStop
  3089 ;;		_I2C1_DO_RX_NACK_RESTART
  3090 ;;		_I2C1_DO_RX_NACK_STOP
  3091 ;;		_I2C1_MasterGetRxData
  3092 ;;		_I2C1_MasterSendAck
  3093 ;;		_rd1RegCompleteHandler
  3094 ;;		_rd2RegCompleteHandler
  3095 ;;		_rdBlkRegCompleteHandler
  3096 ;;		_wr1RegCompleteHandler
  3097 ;;		_wr2RegCompleteHandler
  3098 ;; This function is called by:
  3099 ;;		_I2C1_MasterFsm
  3100 ;; This function uses a non-reentrant model
  3101 ;;
  3102                           
  3103                           	psect	text33
  3104   0012D8                     __ptext33:
  3105                           	callstack 0
  3106   0012D8                     _I2C1_DO_RX:
  3107                           	callstack 21
  3108   0012D8                     
  3109                           ;mcc_generated_files/i2c1_master.c: 380:     *I2C1_Status.data_ptr++ = I2C1_MasterGetRxD
      +                          ata();
  3110   0012D8  ECDB  F00D         	call	_I2C1_MasterGetRxData	;wreg free
  3111   0012DC  C024  FFD9         	movff	_I2C1_Status+35,fsr2l
  3112   0012E0  C025  FFDA         	movff	_I2C1_Status+36,fsr2h
  3113   0012E4  6EDF               	movwf	indf2,c
  3114   0012E6  4A24               	infsnz	(_I2C1_Status+35)^0,f,c
  3115   0012E8  2A25               	incf	(_I2C1_Status+36)^0,f,c
  3116   0012EA                     
  3117                           ;mcc_generated_files/i2c1_master.c: 381:     if(--I2C1_Status.data_length)
  3118   0012EA  0626               	decf	(_I2C1_Status+37)^0,f,c
  3119   0012EC  A0D8               	btfss	status,0,c
  3120   0012EE  0627               	decf	(_I2C1_Status+38)^0,f,c
  3121   0012F0  5026               	movf	(_I2C1_Status+37)^0,w,c
  3122   0012F2  1027               	iorwf	(_I2C1_Status+38)^0,w,c
  3123   0012F4  B4D8               	btfsc	status,2,c
  3124   0012F6  EF7F  F009         	goto	u531
  3125   0012FA  EF81  F009         	goto	u530
  3126   0012FE                     u531:
  3127   0012FE  EF86  F009         	goto	l388
  3128   001302                     u530:
  3129   001302                     
  3130                           ;mcc_generated_files/i2c1_master.c: 382:     {;mcc_generated_files/i2c1_master.c: 383:  
      +                                 I2C1_MasterSendAck();
  3131   001302  ECD3  F00D         	call	_I2C1_MasterSendAck	;wreg free
  3132   001306                     
  3133                           ;mcc_generated_files/i2c1_master.c: 384:         return I2C1_RCEN;
  3134   001306  0E05               	movlw	5
  3135   001308  EFBE  F009         	goto	l389
  3136   00130C                     l388:
  3137                           
  3138                           ;mcc_generated_files/i2c1_master.c: 387:     {;mcc_generated_files/i2c1_master.c: 388:  
      +                                 I2C1_Status.bufferFree = 1;
  3139   00130C  862A               	bsf	(_I2C1_Status+41)^0,3,c
  3140                           
  3141                           ;mcc_generated_files/i2c1_master.c: 389:         switch(I2C1_Status.callbackTable[I2C1_D
      +                          ATA_COMPLETE](I2C1_Status.callbackPayload[I2C1_DATA_COMPLETE]))
  3142   00130E  EF91  F009         	goto	l2373
  3143   001312                     l2363:
  3144                           
  3145                           ;mcc_generated_files/i2c1_master.c: 393:                 return I2C1_DO_RX_NACK_RESTART(
      +                          );
  3146   001312  ECB3  F00D         	call	_I2C1_DO_RX_NACK_RESTART	;wreg free
  3147   001316  EFBE  F009         	goto	l389
  3148   00131A                     l2367:
  3149                           
  3150                           ;mcc_generated_files/i2c1_master.c: 397:                 return I2C1_DO_RX_NACK_STOP();
  3151   00131A  ECB7  F00D         	call	_I2C1_DO_RX_NACK_STOP	;wreg free
  3152   00131E  EFBE  F009         	goto	l389
  3153   001322                     l2373:
  3154   001322  C013  F03B         	movff	_I2C1_Status+18,I2C1_CallbackReturnReset@funPtr
  3155   001326  C014  F03C         	movff	_I2C1_Status+19,I2C1_CallbackReturnReset@funPtr+1
  3156   00132A  D802               	call	u548
  3157   00132C  EFA2  F009         	goto	u549
  3158   001330                     u548:
  3159   001330  0005               	push	
  3160   001332  6EFA               	movwf	pclath,c
  3161   001334  5001               	movf	_I2C1_Status^0,w,c
  3162   001336  6EFD               	movwf	tosl,c
  3163   001338  5002               	movf	(_I2C1_Status+1)^0,w,c
  3164   00133A  6EFE               	movwf	tosh,c
  3165   00133C  5003               	movf	(_I2C1_Status+2)^0,w,c
  3166   00133E  6EFF               	movwf	tosu,c
  3167   001340  50FA               	movf	pclath,w,c
  3168   001342  0012               	return		;indir
  3169   001344                     u549:
  3170   001344  6E3D               	movwf	??_I2C1_DO_RX^0,c
  3171   001346  6A3E               	clrf	(??_I2C1_DO_RX+1)^0,c
  3172                           
  3173                           ; Switch on 2 bytes has been partitioned into a top level switch of size 1, and 1 sub-sw
      +                          itches
  3174                           ; Switch size 1, requested type "simple"
  3175                           ; Number of cases is 1, Range of values is 0 to 0
  3176                           ; switch strategies available:
  3177                           ; Name         Instructions Cycles
  3178                           ; simple_byte            4     3 (average)
  3179                           ;	Chosen strategy is simple_byte
  3180   001348  503E               	movf	(??_I2C1_DO_RX+1)^0,w,c
  3181   00134A  0A00               	xorlw	0	; case 0
  3182   00134C  B4D8               	btfsc	status,2,c
  3183   00134E  EFAB  F009         	goto	l2929
  3184   001352  EF8D  F009         	goto	l2367
  3185   001356                     l2929:
  3186                           
  3187                           ; Switch size 1, requested type "simple"
  3188                           ; Number of cases is 4, Range of values is 1 to 4
  3189                           ; switch strategies available:
  3190                           ; Name         Instructions Cycles
  3191                           ; simple_byte           13     7 (average)
  3192                           ;	Chosen strategy is simple_byte
  3193   001356  503D               	movf	??_I2C1_DO_RX^0,w,c
  3194   001358  0A01               	xorlw	1	; case 1
  3195   00135A  B4D8               	btfsc	status,2,c
  3196   00135C  EF8D  F009         	goto	l2367
  3197   001360  0A03               	xorlw	3	; case 2
  3198   001362  B4D8               	btfsc	status,2,c
  3199   001364  EF89  F009         	goto	l2363
  3200   001368  0A01               	xorlw	1	; case 3
  3201   00136A  B4D8               	btfsc	status,2,c
  3202   00136C  EF89  F009         	goto	l2363
  3203   001370  0A07               	xorlw	7	; case 4
  3204   001372  B4D8               	btfsc	status,2,c
  3205   001374  EF8D  F009         	goto	l2367
  3206   001378  EF8D  F009         	goto	l2367
  3207   00137C                     l389:
  3208   00137C  0012               	return		;funcret
  3209   00137E                     __end_of_I2C1_DO_RX:
  3210                           	callstack 0
  3211                           
  3212 ;; *************** function _I2C1_DO_TX *****************
  3213 ;; Defined at:
  3214 ;;		line 354 in file "mcc_generated_files/i2c1_master.c"
  3215 ;; Parameters:    Size  Location     Type
  3216 ;;		None
  3217 ;; Auto vars:     Size  Location     Type
  3218 ;;		None
  3219 ;; Return value:  Size  Location     Type
  3220 ;;                  1    wreg      enum E6874
  3221 ;; Registers used:
  3222 ;;		wreg, fsr2l, fsr2h, status,2, status,0, pcl, pclath, pclatu, tosl, prodl, prodh, cstack
  3223 ;; Tracked objects:
  3224 ;;		On entry : 0/0
  3225 ;;		On exit  : 0/0
  3226 ;;		Unchanged: 0/0
  3227 ;; Data sizes:     COMRAM   BANK0   BANK1   BANK2   BANK3   BANK4   BANK5   BANK6   BANK7   BANK8   BANK9  BANK10  BANK1
      +1  BANK12  BANK13  BANK14  BANK15
  3228 ;;      Params:         0       0       0       0       0       0       0       0       0       0       0       0       
      +0       0       0       0       0
  3229 ;;      Locals:         0       0       0       0       0       0       0       0       0       0       0       0       
      +0       0       0       0       0
  3230 ;;      Temps:          2       0       0       0       0       0       0       0       0       0       0       0       
      +0       0       0       0       0
  3231 ;;      Totals:         2       0       0       0       0       0       0       0       0       0       0       0       
      +0       0       0       0       0
  3232 ;;Total ram usage:        2 bytes
  3233 ;; Hardware stack levels used: 1
  3234 ;; Hardware stack levels required when called: 3
  3235 ;; This function calls:
  3236 ;;		Absolute function
  3237 ;;		_I2C1_CallbackReturnReset
  3238 ;;		_I2C1_CallbackReturnStop
  3239 ;;		_I2C1_DO_SEND_RESTART_READ
  3240 ;;		_I2C1_DO_SEND_RESTART_WRITE
  3241 ;;		_I2C1_DO_SEND_STOP
  3242 ;;		_I2C1_MasterIsNack
  3243 ;;		_I2C1_MasterSendTxData
  3244 ;;		_rd1RegCompleteHandler
  3245 ;;		_rd2RegCompleteHandler
  3246 ;;		_rdBlkRegCompleteHandler
  3247 ;;		_wr1RegCompleteHandler
  3248 ;;		_wr2RegCompleteHandler
  3249 ;; This function is called by:
  3250 ;;		_I2C1_MasterFsm
  3251 ;; This function uses a non-reentrant model
  3252 ;;
  3253                           
  3254                           	psect	text34
  3255   001158                     __ptext34:
  3256                           	callstack 0
  3257   001158                     _I2C1_DO_TX:
  3258                           	callstack 21
  3259   001158                     
  3260                           ;mcc_generated_files/i2c1_master.c: 356:     if(I2C1_MasterIsNack())
  3261   001158  EC62  F00D         	call	_I2C1_MasterIsNack	;wreg free
  3262   00115C  0900               	iorlw	0
  3263   00115E  B4D8               	btfsc	status,2,c
  3264   001160  EFB4  F008         	goto	u501
  3265   001164  EFB6  F008         	goto	u500
  3266   001168                     u501:
  3267   001168  EFF3  F008         	goto	l372
  3268   00116C                     u500:
  3269   00116C  EFC4  F008         	goto	l2333
  3270   001170                     l2319:
  3271                           
  3272                           ;mcc_generated_files/i2c1_master.c: 361:                 return I2C1_DO_SEND_RESTART_REA
      +                          D();
  3273   001170  ECCB  F00D         	call	_I2C1_DO_SEND_RESTART_READ	;wreg free
  3274   001174  EF0D  F009         	goto	l375
  3275   001178                     l2323:
  3276                           
  3277                           ;mcc_generated_files/i2c1_master.c: 363:                   return I2C1_DO_SEND_RESTART_W
      +                          RITE();
  3278   001178  ECC7  F00D         	call	_I2C1_DO_SEND_RESTART_WRITE	;wreg free
  3279   00117C  EF0D  F009         	goto	l375
  3280   001180                     l2327:
  3281                           
  3282                           ;mcc_generated_files/i2c1_master.c: 367:                 return I2C1_DO_SEND_STOP();
  3283   001180  ECBF  F00D         	call	_I2C1_DO_SEND_STOP	;wreg free
  3284   001184  EF0D  F009         	goto	l375
  3285   001188                     l2333:
  3286   001188  C019  F03B         	movff	_I2C1_Status+24,I2C1_CallbackReturnReset@funPtr
  3287   00118C  C01A  F03C         	movff	_I2C1_Status+25,I2C1_CallbackReturnReset@funPtr+1
  3288   001190  EE20  F00A         	lfsr	2,_I2C1_Status+9
  3289   001194  D802               	call	u518
  3290   001196  EFD7  F008         	goto	u519
  3291   00119A                     u518:
  3292   00119A  0005               	push	
  3293   00119C  6EFA               	movwf	pclath,c
  3294   00119E  50DE               	movf	postinc2,w,c
  3295   0011A0  6EFD               	movwf	tosl,c
  3296   0011A2  50DE               	movf	postinc2,w,c
  3297   0011A4  6EFE               	movwf	tosh,c
  3298   0011A6  50DE               	movf	postinc2,w,c
  3299   0011A8  6EFF               	movwf	tosu,c
  3300   0011AA  50FA               	movf	pclath,w,c
  3301   0011AC  0012               	return		;indir
  3302   0011AE                     u519:
  3303   0011AE  6E3D               	movwf	??_I2C1_DO_TX^0,c
  3304   0011B0  6A3E               	clrf	(??_I2C1_DO_TX+1)^0,c
  3305                           
  3306                           ; Switch on 2 bytes has been partitioned into a top level switch of size 1, and 1 sub-sw
      +                          itches
  3307                           ; Switch size 1, requested type "simple"
  3308                           ; Number of cases is 1, Range of values is 0 to 0
  3309                           ; switch strategies available:
  3310                           ; Name         Instructions Cycles
  3311                           ; simple_byte            4     3 (average)
  3312                           ;	Chosen strategy is simple_byte
  3313   0011B2  503E               	movf	(??_I2C1_DO_TX+1)^0,w,c
  3314   0011B4  0A00               	xorlw	0	; case 0
  3315   0011B6  B4D8               	btfsc	status,2,c
  3316   0011B8  EFE0  F008         	goto	l2931
  3317   0011BC  EFC0  F008         	goto	l2327
  3318   0011C0                     l2931:
  3319                           
  3320                           ; Switch size 1, requested type "simple"
  3321                           ; Number of cases is 4, Range of values is 1 to 4
  3322                           ; switch strategies available:
  3323                           ; Name         Instructions Cycles
  3324                           ; simple_byte           13     7 (average)
  3325                           ;	Chosen strategy is simple_byte
  3326   0011C0  503D               	movf	??_I2C1_DO_TX^0,w,c
  3327   0011C2  0A01               	xorlw	1	; case 1
  3328   0011C4  B4D8               	btfsc	status,2,c
  3329   0011C6  EFC0  F008         	goto	l2327
  3330   0011CA  0A03               	xorlw	3	; case 2
  3331   0011CC  B4D8               	btfsc	status,2,c
  3332   0011CE  EFB8  F008         	goto	l2319
  3333   0011D2  0A01               	xorlw	1	; case 3
  3334   0011D4  B4D8               	btfsc	status,2,c
  3335   0011D6  EFBC  F008         	goto	l2323
  3336   0011DA  0A07               	xorlw	7	; case 4
  3337   0011DC  B4D8               	btfsc	status,2,c
  3338   0011DE  EFC0  F008         	goto	l2327
  3339   0011E2  EFC0  F008         	goto	l2327
  3340   0011E6                     l372:
  3341                           
  3342                           ;mcc_generated_files/i2c1_master.c: 371:     {;mcc_generated_files/i2c1_master.c: 372:  
      +                                 I2C1_Status.addressNackCheck = 0;
  3343   0011E6  902A               	bcf	(_I2C1_Status+41)^0,0,c
  3344   0011E8                     
  3345                           ;mcc_generated_files/i2c1_master.c: 373:         I2C1_MasterSendTxData(*I2C1_Status.data
      +                          _ptr++);
  3346   0011E8  C024  FFD9         	movff	_I2C1_Status+35,fsr2l
  3347   0011EC  C025  FFDA         	movff	_I2C1_Status+36,fsr2h
  3348   0011F0  4A24               	infsnz	(_I2C1_Status+35)^0,f,c
  3349   0011F2  2A25               	incf	(_I2C1_Status+36)^0,f,c
  3350   0011F4  50DF               	movf	indf2,w,c
  3351   0011F6  ECCF  F00D         	call	_I2C1_MasterSendTxData
  3352   0011FA                     
  3353                           ;mcc_generated_files/i2c1_master.c: 374:         return (--I2C1_Status.data_length)?I2C1
      +                          _TX:I2C1_TX_EMPTY;
  3354   0011FA  0626               	decf	(_I2C1_Status+37)^0,f,c
  3355   0011FC  A0D8               	btfss	status,0,c
  3356   0011FE  0627               	decf	(_I2C1_Status+38)^0,f,c
  3357   001200  5026               	movf	(_I2C1_Status+37)^0,w,c
  3358   001202  1027               	iorwf	(_I2C1_Status+38)^0,w,c
  3359   001204  A4D8               	btfss	status,2,c
  3360   001206  EF07  F009         	goto	u521
  3361   00120A  EF09  F009         	goto	u520
  3362   00120E                     u521:
  3363   00120E  EF0C  F009         	goto	l2341
  3364   001212                     u520:
  3365   001212  0E06               	movlw	6
  3366   001214  EF0D  F009         	goto	l375
  3367   001218                     l2341:
  3368   001218  0E03               	movlw	3
  3369   00121A                     l375:
  3370   00121A  0012               	return		;funcret
  3371   00121C                     __end_of_I2C1_DO_TX:
  3372                           	callstack 0
  3373                           
  3374 ;; *************** function _I2C1_DO_SEND_ADR_WRITE *****************
  3375 ;; Defined at:
  3376 ;;		line 347 in file "mcc_generated_files/i2c1_master.c"
  3377 ;; Parameters:    Size  Location     Type
  3378 ;;		None
  3379 ;; Auto vars:     Size  Location     Type
  3380 ;;		None
  3381 ;; Return value:  Size  Location     Type
  3382 ;;                  1    wreg      enum E6874
  3383 ;; Registers used:
  3384 ;;		wreg, status,2, status,0, cstack
  3385 ;; Tracked objects:
  3386 ;;		On entry : 0/0
  3387 ;;		On exit  : 0/0
  3388 ;;		Unchanged: 0/0
  3389 ;; Data sizes:     COMRAM   BANK0   BANK1   BANK2   BANK3   BANK4   BANK5   BANK6   BANK7   BANK8   BANK9  BANK10  BANK1
      +1  BANK12  BANK13  BANK14  BANK15
  3390 ;;      Params:         0       0       0       0       0       0       0       0       0       0       0       0       
      +0       0       0       0       0
  3391 ;;      Locals:         0       0       0       0       0       0       0       0       0       0       0       0       
      +0       0       0       0       0
  3392 ;;      Temps:          0       0       0       0       0       0       0       0       0       0       0       0       
      +0       0       0       0       0
  3393 ;;      Totals:         0       0       0       0       0       0       0       0       0       0       0       0       
      +0       0       0       0       0
  3394 ;;Total ram usage:        0 bytes
  3395 ;; Hardware stack levels used: 1
  3396 ;; Hardware stack levels required when called: 1
  3397 ;; This function calls:
  3398 ;;		_I2C1_MasterSendTxData
  3399 ;; This function is called by:
  3400 ;;		_I2C1_MasterFsm
  3401 ;; This function uses a non-reentrant model
  3402 ;;
  3403                           
  3404                           	psect	text35
  3405   001B24                     __ptext35:
  3406                           	callstack 0
  3407   001B24                     _I2C1_DO_SEND_ADR_WRITE:
  3408                           	callstack 23
  3409   001B24                     
  3410                           ;mcc_generated_files/i2c1_master.c: 349:     I2C1_Status.addressNackCheck = 1;
  3411   001B24  802A               	bsf	(_I2C1_Status+41)^0,0,c
  3412   001B26                     
  3413                           ;mcc_generated_files/i2c1_master.c: 350:     I2C1_MasterSendTxData((uint8_t) (I2C1_Statu
      +                          s.address << 1));
  3414   001B26  5023               	movf	(_I2C1_Status+34)^0,w,c
  3415   001B28  2423               	addwf	(_I2C1_Status+34)^0,w,c
  3416   001B2A  ECCF  F00D         	call	_I2C1_MasterSendTxData
  3417   001B2E                     
  3418                           ;mcc_generated_files/i2c1_master.c: 351:     return I2C1_TX;
  3419   001B2E  0E03               	movlw	3
  3420   001B30  0012               	return		;funcret
  3421   001B32                     __end_of_I2C1_DO_SEND_ADR_WRITE:
  3422                           	callstack 0
  3423                           
  3424 ;; *************** function _I2C1_DO_SEND_ADR_READ *****************
  3425 ;; Defined at:
  3426 ;;		line 340 in file "mcc_generated_files/i2c1_master.c"
  3427 ;; Parameters:    Size  Location     Type
  3428 ;;		None
  3429 ;; Auto vars:     Size  Location     Type
  3430 ;;		None
  3431 ;; Return value:  Size  Location     Type
  3432 ;;                  1    wreg      enum E6874
  3433 ;; Registers used:
  3434 ;;		wreg, status,0, cstack
  3435 ;; Tracked objects:
  3436 ;;		On entry : 0/0
  3437 ;;		On exit  : 0/0
  3438 ;;		Unchanged: 0/0
  3439 ;; Data sizes:     COMRAM   BANK0   BANK1   BANK2   BANK3   BANK4   BANK5   BANK6   BANK7   BANK8   BANK9  BANK10  BANK1
      +1  BANK12  BANK13  BANK14  BANK15
  3440 ;;      Params:         0       0       0       0       0       0       0       0       0       0       0       0       
      +0       0       0       0       0
  3441 ;;      Locals:         0       0       0       0       0       0       0       0       0       0       0       0       
      +0       0       0       0       0
  3442 ;;      Temps:          0       0       0       0       0       0       0       0       0       0       0       0       
      +0       0       0       0       0
  3443 ;;      Totals:         0       0       0       0       0       0       0       0       0       0       0       0       
      +0       0       0       0       0
  3444 ;;Total ram usage:        0 bytes
  3445 ;; Hardware stack levels used: 1
  3446 ;; Hardware stack levels required when called: 1
  3447 ;; This function calls:
  3448 ;;		_I2C1_MasterSendTxData
  3449 ;; This function is called by:
  3450 ;;		_I2C1_MasterFsm
  3451 ;; This function uses a non-reentrant model
  3452 ;;
  3453                           
  3454                           	psect	text36
  3455   001B32                     __ptext36:
  3456                           	callstack 0
  3457   001B32                     _I2C1_DO_SEND_ADR_READ:
  3458                           	callstack 23
  3459   001B32                     
  3460                           ;mcc_generated_files/i2c1_master.c: 342:     I2C1_Status.addressNackCheck = 1;
  3461   001B32  802A               	bsf	(_I2C1_Status+41)^0,0,c
  3462   001B34                     
  3463                           ;mcc_generated_files/i2c1_master.c: 343:     I2C1_MasterSendTxData((uint8_t) (I2C1_Statu
      +                          s.address << 1 | 1));
  3464   001B34  80D8               	bsf	status,0,c
  3465   001B36  3423               	rlcf	(_I2C1_Status+34)^0,w,c
  3466   001B38  ECCF  F00D         	call	_I2C1_MasterSendTxData
  3467   001B3C                     
  3468                           ;mcc_generated_files/i2c1_master.c: 344:     return I2C1_RCEN;
  3469   001B3C  0E05               	movlw	5
  3470   001B3E  0012               	return		;funcret
  3471   001B40                     __end_of_I2C1_DO_SEND_ADR_READ:
  3472                           	callstack 0
  3473                           
  3474 ;; *************** function _I2C1_DO_IDLE *****************
  3475 ;; Defined at:
  3476 ;;		line 333 in file "mcc_generated_files/i2c1_master.c"
  3477 ;; Parameters:    Size  Location     Type
  3478 ;;		None
  3479 ;; Auto vars:     Size  Location     Type
  3480 ;;		None
  3481 ;; Return value:  Size  Location     Type
  3482 ;;                  1    wreg      enum E6874
  3483 ;; Registers used:
  3484 ;;		wreg, status,2
  3485 ;; Tracked objects:
  3486 ;;		On entry : 0/0
  3487 ;;		On exit  : 0/0
  3488 ;;		Unchanged: 0/0
  3489 ;; Data sizes:     COMRAM   BANK0   BANK1   BANK2   BANK3   BANK4   BANK5   BANK6   BANK7   BANK8   BANK9  BANK10  BANK1
      +1  BANK12  BANK13  BANK14  BANK15
  3490 ;;      Params:         0       0       0       0       0       0       0       0       0       0       0       0       
      +0       0       0       0       0
  3491 ;;      Locals:         0       0       0       0       0       0       0       0       0       0       0       0       
      +0       0       0       0       0
  3492 ;;      Temps:          0       0       0       0       0       0       0       0       0       0       0       0       
      +0       0       0       0       0
  3493 ;;      Totals:         0       0       0       0       0       0       0       0       0       0       0       0       
      +0       0       0       0       0
  3494 ;;Total ram usage:        0 bytes
  3495 ;; Hardware stack levels used: 1
  3496 ;; This function calls:
  3497 ;;		Nothing
  3498 ;; This function is called by:
  3499 ;;		_I2C1_MasterFsm
  3500 ;; This function uses a non-reentrant model
  3501 ;;
  3502                           
  3503                           	psect	text37
  3504   001B54                     __ptext37:
  3505                           	callstack 0
  3506   001B54                     _I2C1_DO_IDLE:
  3507                           	callstack 24
  3508   001B54                     
  3509                           ;mcc_generated_files/i2c1_master.c: 335:     I2C1_Status.busy = 0;
  3510   001B54  922A               	bcf	(_I2C1_Status+41)^0,1,c
  3511   001B56                     
  3512                           ;mcc_generated_files/i2c1_master.c: 336:     I2C1_Status.error = I2C1_NOERR;
  3513   001B56  0E00               	movlw	0
  3514   001B58  6E29               	movwf	(_I2C1_Status+40)^0,c
  3515   001B5A                     
  3516                           ;mcc_generated_files/i2c1_master.c: 337:     return I2C1_RESET;
  3517   001B5A  0E0E               	movlw	14
  3518   001B5C  0012               	return		;funcret
  3519   001B5E                     __end_of_I2C1_DO_IDLE:
  3520                           	callstack 0
  3521                           
  3522 ;; *************** function _I2C1_DO_TX_EMPTY *****************
  3523 ;; Defined at:
  3524 ;;		line 409 in file "mcc_generated_files/i2c1_master.c"
  3525 ;; Parameters:    Size  Location     Type
  3526 ;;		None
  3527 ;; Auto vars:     Size  Location     Type
  3528 ;;		None
  3529 ;; Return value:  Size  Location     Type
  3530 ;;                  1    wreg      enum E6874
  3531 ;; Registers used:
  3532 ;;		wreg, fsr2l, fsr2h, status,2, status,0, pcl, pclath, pclatu, tosl, prodl, prodh, cstack
  3533 ;; Tracked objects:
  3534 ;;		On entry : 0/0
  3535 ;;		On exit  : 0/0
  3536 ;;		Unchanged: 0/0
  3537 ;; Data sizes:     COMRAM   BANK0   BANK1   BANK2   BANK3   BANK4   BANK5   BANK6   BANK7   BANK8   BANK9  BANK10  BANK1
      +1  BANK12  BANK13  BANK14  BANK15
  3538 ;;      Params:         0       0       0       0       0       0       0       0       0       0       0       0       
      +0       0       0       0       0
  3539 ;;      Locals:         0       0       0       0       0       0       0       0       0       0       0       0       
      +0       0       0       0       0
  3540 ;;      Temps:          2       0       0       0       0       0       0       0       0       0       0       0       
      +0       0       0       0       0
  3541 ;;      Totals:         2       0       0       0       0       0       0       0       0       0       0       0       
      +0       0       0       0       0
  3542 ;;Total ram usage:        2 bytes
  3543 ;; Hardware stack levels used: 1
  3544 ;; Hardware stack levels required when called: 3
  3545 ;; This function calls:
  3546 ;;		Absolute function
  3547 ;;		_I2C1_CallbackReturnReset
  3548 ;;		_I2C1_CallbackReturnStop
  3549 ;;		_I2C1_DO_SEND_RESTART
  3550 ;;		_I2C1_DO_SEND_STOP
  3551 ;;		_I2C1_MasterSetIrq
  3552 ;;		_rd1RegCompleteHandler
  3553 ;;		_rd2RegCompleteHandler
  3554 ;;		_rdBlkRegCompleteHandler
  3555 ;;		_wr1RegCompleteHandler
  3556 ;;		_wr2RegCompleteHandler
  3557 ;; This function is called by:
  3558 ;;		_I2C1_MasterFsm
  3559 ;; This function uses a non-reentrant model
  3560 ;;
  3561                           
  3562                           	psect	text38
  3563   001528                     __ptext38:
  3564                           	callstack 0
  3565   001528                     _I2C1_DO_TX_EMPTY:
  3566                           	callstack 21
  3567   001528                     
  3568                           ;mcc_generated_files/i2c1_master.c: 411:     I2C1_Status.bufferFree = 1;
  3569   001528  862A               	bsf	(_I2C1_Status+41)^0,3,c
  3570                           
  3571                           ;mcc_generated_files/i2c1_master.c: 412:     switch(I2C1_Status.callbackTable[I2C1_DATA_
      +                          COMPLETE](I2C1_Status.callbackPayload[I2C1_DATA_COMPLETE]))
  3572   00152A  EFA4  F00A         	goto	l2405
  3573   00152E                     l2389:
  3574                           
  3575                           ;mcc_generated_files/i2c1_master.c: 416:             return I2C1_DO_SEND_RESTART();
  3576   00152E  ECC3  F00D         	call	_I2C1_DO_SEND_RESTART	;wreg free
  3577   001532  EFD1  F00A         	goto	l406
  3578   001536                     l2393:
  3579                           
  3580                           ;mcc_generated_files/i2c1_master.c: 418:             I2C1_MasterSetIrq();
  3581   001536  ECD9  F00D         	call	_I2C1_MasterSetIrq	;wreg free
  3582   00153A                     
  3583                           ;mcc_generated_files/i2c1_master.c: 419:             return I2C1_TX;
  3584   00153A  0E03               	movlw	3
  3585   00153C  EFD1  F00A         	goto	l406
  3586   001540                     l2399:
  3587                           
  3588                           ;mcc_generated_files/i2c1_master.c: 422:             return I2C1_DO_SEND_STOP();
  3589   001540  ECBF  F00D         	call	_I2C1_DO_SEND_STOP	;wreg free
  3590   001544  EFD1  F00A         	goto	l406
  3591   001548                     l2405:
  3592   001548  C013  F03B         	movff	_I2C1_Status+18,I2C1_CallbackReturnReset@funPtr
  3593   00154C  C014  F03C         	movff	_I2C1_Status+19,I2C1_CallbackReturnReset@funPtr+1
  3594   001550  D802               	call	u558
  3595   001552  EFB5  F00A         	goto	u559
  3596   001556                     u558:
  3597   001556  0005               	push	
  3598   001558  6EFA               	movwf	pclath,c
  3599   00155A  5001               	movf	_I2C1_Status^0,w,c
  3600   00155C  6EFD               	movwf	tosl,c
  3601   00155E  5002               	movf	(_I2C1_Status+1)^0,w,c
  3602   001560  6EFE               	movwf	tosh,c
  3603   001562  5003               	movf	(_I2C1_Status+2)^0,w,c
  3604   001564  6EFF               	movwf	tosu,c
  3605   001566  50FA               	movf	pclath,w,c
  3606   001568  0012               	return		;indir
  3607   00156A                     u559:
  3608   00156A  6E3D               	movwf	??_I2C1_DO_TX_EMPTY^0,c
  3609   00156C  6A3E               	clrf	(??_I2C1_DO_TX_EMPTY+1)^0,c
  3610                           
  3611                           ; Switch on 2 bytes has been partitioned into a top level switch of size 1, and 1 sub-sw
      +                          itches
  3612                           ; Switch size 1, requested type "simple"
  3613                           ; Number of cases is 1, Range of values is 0 to 0
  3614                           ; switch strategies available:
  3615                           ; Name         Instructions Cycles
  3616                           ; simple_byte            4     3 (average)
  3617                           ;	Chosen strategy is simple_byte
  3618   00156E  503E               	movf	(??_I2C1_DO_TX_EMPTY+1)^0,w,c
  3619   001570  0A00               	xorlw	0	; case 0
  3620   001572  B4D8               	btfsc	status,2,c
  3621   001574  EFBE  F00A         	goto	l2933
  3622   001578  EFA0  F00A         	goto	l2399
  3623   00157C                     l2933:
  3624                           
  3625                           ; Switch size 1, requested type "simple"
  3626                           ; Number of cases is 4, Range of values is 1 to 4
  3627                           ; switch strategies available:
  3628                           ; Name         Instructions Cycles
  3629                           ; simple_byte           13     7 (average)
  3630                           ;	Chosen strategy is simple_byte
  3631   00157C  503D               	movf	??_I2C1_DO_TX_EMPTY^0,w,c
  3632   00157E  0A01               	xorlw	1	; case 1
  3633   001580  B4D8               	btfsc	status,2,c
  3634   001582  EFA0  F00A         	goto	l2399
  3635   001586  0A03               	xorlw	3	; case 2
  3636   001588  B4D8               	btfsc	status,2,c
  3637   00158A  EF97  F00A         	goto	l2389
  3638   00158E  0A01               	xorlw	1	; case 3
  3639   001590  B4D8               	btfsc	status,2,c
  3640   001592  EF97  F00A         	goto	l2389
  3641   001596  0A07               	xorlw	7	; case 4
  3642   001598  B4D8               	btfsc	status,2,c
  3643   00159A  EF9B  F00A         	goto	l2393
  3644   00159E  EFA0  F00A         	goto	l2399
  3645   0015A2                     l406:
  3646   0015A2  0012               	return		;funcret
  3647   0015A4                     __end_of_I2C1_DO_TX_EMPTY:
  3648                           	callstack 0
  3649                           
  3650 ;; *************** function _I2C1_MasterSetIrq *****************
  3651 ;; Defined at:
  3652 ;;		line 645 in file "mcc_generated_files/i2c1_master.c"
  3653 ;; Parameters:    Size  Location     Type
  3654 ;;		None
  3655 ;; Auto vars:     Size  Location     Type
  3656 ;;		None
  3657 ;; Return value:  Size  Location     Type
  3658 ;;                  1    wreg      void 
  3659 ;; Registers used:
  3660 ;;		None
  3661 ;; Tracked objects:
  3662 ;;		On entry : 0/0
  3663 ;;		On exit  : 0/0
  3664 ;;		Unchanged: 0/0
  3665 ;; Data sizes:     COMRAM   BANK0   BANK1   BANK2   BANK3   BANK4   BANK5   BANK6   BANK7   BANK8   BANK9  BANK10  BANK1
      +1  BANK12  BANK13  BANK14  BANK15
  3666 ;;      Params:         0       0       0       0       0       0       0       0       0       0       0       0       
      +0       0       0       0       0
  3667 ;;      Locals:         0       0       0       0       0       0       0       0       0       0       0       0       
      +0       0       0       0       0
  3668 ;;      Temps:          0       0       0       0       0       0       0       0       0       0       0       0       
      +0       0       0       0       0
  3669 ;;      Totals:         0       0       0       0       0       0       0       0       0       0       0       0       
      +0       0       0       0       0
  3670 ;;Total ram usage:        0 bytes
  3671 ;; Hardware stack levels used: 1
  3672 ;; This function calls:
  3673 ;;		Nothing
  3674 ;; This function is called by:
  3675 ;;		_I2C1_DO_TX_EMPTY
  3676 ;; This function uses a non-reentrant model
  3677 ;;
  3678                           
  3679                           	psect	text39
  3680   001BB2                     __ptext39:
  3681                           	callstack 0
  3682   001BB2                     _I2C1_MasterSetIrq:
  3683                           	callstack 23
  3684   001BB2                     
  3685                           ;mcc_generated_files/i2c1_master.c: 647:     PIR1bits.SSP1IF = 1;
  3686   001BB2  869E               	bsf	158,3,c	;volatile
  3687   001BB4  0012               	return		;funcret
  3688   001BB6                     __end_of_I2C1_MasterSetIrq:
  3689                           	callstack 0
  3690                           
  3691 ;; *************** function _I2C1_MasterIsNack *****************
  3692 ;; Defined at:
  3693 ;;		line 598 in file "mcc_generated_files/i2c1_master.c"
  3694 ;; Parameters:    Size  Location     Type
  3695 ;;		None
  3696 ;; Auto vars:     Size  Location     Type
  3697 ;;		None
  3698 ;; Return value:  Size  Location     Type
  3699 ;;                  1    wreg      _Bool 
  3700 ;; Registers used:
  3701 ;;		wreg
  3702 ;; Tracked objects:
  3703 ;;		On entry : 0/0
  3704 ;;		On exit  : 0/0
  3705 ;;		Unchanged: 0/0
  3706 ;; Data sizes:     COMRAM   BANK0   BANK1   BANK2   BANK3   BANK4   BANK5   BANK6   BANK7   BANK8   BANK9  BANK10  BANK1
      +1  BANK12  BANK13  BANK14  BANK15
  3707 ;;      Params:         0       0       0       0       0       0       0       0       0       0       0       0       
      +0       0       0       0       0
  3708 ;;      Locals:         0       0       0       0       0       0       0       0       0       0       0       0       
      +0       0       0       0       0
  3709 ;;      Temps:          0       0       0       0       0       0       0       0       0       0       0       0       
      +0       0       0       0       0
  3710 ;;      Totals:         0       0       0       0       0       0       0       0       0       0       0       0       
      +0       0       0       0       0
  3711 ;;Total ram usage:        0 bytes
  3712 ;; Hardware stack levels used: 1
  3713 ;; This function calls:
  3714 ;;		Nothing
  3715 ;; This function is called by:
  3716 ;;		_I2C1_MasterFsm
  3717 ;;		_I2C1_DO_TX
  3718 ;; This function uses a non-reentrant model
  3719 ;;
  3720                           
  3721                           	psect	text40
  3722   001AC4                     __ptext40:
  3723                           	callstack 0
  3724   001AC4                     _I2C1_MasterIsNack:
  3725                           	callstack 24
  3726   001AC4                     
  3727                           ;mcc_generated_files/i2c1_master.c: 600:     return SSP1CON2bits.ACKSTAT;
  3728   001AC4  BCC5               	btfsc	197,6,c	;volatile
  3729   001AC6  EF67  F00D         	goto	u491
  3730   001ACA  EF6A  F00D         	goto	u490
  3731   001ACE                     u491:
  3732   001ACE  0E01               	movlw	1
  3733   001AD0  EF6B  F00D         	goto	u496
  3734   001AD4                     u490:
  3735   001AD4  0E00               	movlw	0
  3736   001AD6                     u496:
  3737   001AD6  0012               	return		;funcret
  3738   001AD8                     __end_of_I2C1_MasterIsNack:
  3739                           	callstack 0
  3740                           
  3741 ;; *************** function _I2C1_MasterSendTxData *****************
  3742 ;; Defined at:
  3743 ;;		line 568 in file "mcc_generated_files/i2c1_master.c"
  3744 ;; Parameters:    Size  Location     Type
  3745 ;;  data            1    wreg     unsigned char 
  3746 ;; Auto vars:     Size  Location     Type
  3747 ;;  data            1    0[COMRAM] unsigned char 
  3748 ;; Return value:  Size  Location     Type
  3749 ;;                  1    wreg      void 
  3750 ;; Registers used:
  3751 ;;		wreg
  3752 ;; Tracked objects:
  3753 ;;		On entry : 0/0
  3754 ;;		On exit  : 0/0
  3755 ;;		Unchanged: 0/0
  3756 ;; Data sizes:     COMRAM   BANK0   BANK1   BANK2   BANK3   BANK4   BANK5   BANK6   BANK7   BANK8   BANK9  BANK10  BANK1
      +1  BANK12  BANK13  BANK14  BANK15
  3757 ;;      Params:         0       0       0       0       0       0       0       0       0       0       0       0       
      +0       0       0       0       0
  3758 ;;      Locals:         1       0       0       0       0       0       0       0       0       0       0       0       
      +0       0       0       0       0
  3759 ;;      Temps:          0       0       0       0       0       0       0       0       0       0       0       0       
      +0       0       0       0       0
  3760 ;;      Totals:         1       0       0       0       0       0       0       0       0       0       0       0       
      +0       0       0       0       0
  3761 ;;Total ram usage:        1 bytes
  3762 ;; Hardware stack levels used: 1
  3763 ;; This function calls:
  3764 ;;		Nothing
  3765 ;; This function is called by:
  3766 ;;		_I2C1_DO_SEND_ADR_READ
  3767 ;;		_I2C1_DO_SEND_ADR_WRITE
  3768 ;;		_I2C1_DO_TX
  3769 ;; This function uses a non-reentrant model
  3770 ;;
  3771                           
  3772                           	psect	text41
  3773   001B9E                     __ptext41:
  3774                           	callstack 0
  3775   001B9E                     _I2C1_MasterSendTxData:
  3776                           	callstack 23
  3777                           
  3778                           ;incstack = 0
  3779                           ;I2C1_MasterSendTxData@data stored from wreg
  3780   001B9E  6E30               	movwf	I2C1_MasterSendTxData@data^0,c
  3781   001BA0                     
  3782                           ;mcc_generated_files/i2c1_master.c: 568: static __attribute__((inline)) void I2C1_Master
      +                          SendTxData(uint8_t data);mcc_generated_files/i2c1_master.c: 569: {;mcc_generated_files/i
      +                          2c1_master.c: 570:     SSP1BUF = data;
  3783   001BA0  C030  FFC9         	movff	I2C1_MasterSendTxData@data,4041	;volatile
  3784   001BA4  0012               	return		;funcret
  3785   001BA6                     __end_of_I2C1_MasterSendTxData:
  3786                           	callstack 0
  3787                           
  3788 ;; *************** function _I2C1_MasterSendAck *****************
  3789 ;; Defined at:
  3790 ;;		line 603 in file "mcc_generated_files/i2c1_master.c"
  3791 ;; Parameters:    Size  Location     Type
  3792 ;;		None
  3793 ;; Auto vars:     Size  Location     Type
  3794 ;;		None
  3795 ;; Return value:  Size  Location     Type
  3796 ;;                  1    wreg      void 
  3797 ;; Registers used:
  3798 ;;		None
  3799 ;; Tracked objects:
  3800 ;;		On entry : 0/0
  3801 ;;		On exit  : 0/0
  3802 ;;		Unchanged: 0/0
  3803 ;; Data sizes:     COMRAM   BANK0   BANK1   BANK2   BANK3   BANK4   BANK5   BANK6   BANK7   BANK8   BANK9  BANK10  BANK1
      +1  BANK12  BANK13  BANK14  BANK15
  3804 ;;      Params:         0       0       0       0       0       0       0       0       0       0       0       0       
      +0       0       0       0       0
  3805 ;;      Locals:         0       0       0       0       0       0       0       0       0       0       0       0       
      +0       0       0       0       0
  3806 ;;      Temps:          0       0       0       0       0       0       0       0       0       0       0       0       
      +0       0       0       0       0
  3807 ;;      Totals:         0       0       0       0       0       0       0       0       0       0       0       0       
      +0       0       0       0       0
  3808 ;;Total ram usage:        0 bytes
  3809 ;; Hardware stack levels used: 1
  3810 ;; This function calls:
  3811 ;;		Nothing
  3812 ;; This function is called by:
  3813 ;;		_I2C1_DO_RX
  3814 ;;		_I2C1_DO_RX_ACK
  3815 ;; This function uses a non-reentrant model
  3816 ;;
  3817                           
  3818                           	psect	text42
  3819   001BA6                     __ptext42:
  3820                           	callstack 0
  3821   001BA6                     _I2C1_MasterSendAck:
  3822                           	callstack 23
  3823   001BA6                     
  3824                           ;mcc_generated_files/i2c1_master.c: 605:     SSP1CON2bits.ACKDT = 0;
  3825   001BA6  9AC5               	bcf	197,5,c	;volatile
  3826                           
  3827                           ;mcc_generated_files/i2c1_master.c: 606:     SSP1CON2bits.ACKEN = 1;
  3828   001BA8  88C5               	bsf	197,4,c	;volatile
  3829   001BAA  0012               	return		;funcret
  3830   001BAC                     __end_of_I2C1_MasterSendAck:
  3831                           	callstack 0
  3832                           
  3833 ;; *************** function _I2C1_MasterGetRxData *****************
  3834 ;; Defined at:
  3835 ;;		line 563 in file "mcc_generated_files/i2c1_master.c"
  3836 ;; Parameters:    Size  Location     Type
  3837 ;;		None
  3838 ;; Auto vars:     Size  Location     Type
  3839 ;;		None
  3840 ;; Return value:  Size  Location     Type
  3841 ;;                  1    wreg      unsigned char 
  3842 ;; Registers used:
  3843 ;;		wreg, status,2
  3844 ;; Tracked objects:
  3845 ;;		On entry : 0/0
  3846 ;;		On exit  : 0/0
  3847 ;;		Unchanged: 0/0
  3848 ;; Data sizes:     COMRAM   BANK0   BANK1   BANK2   BANK3   BANK4   BANK5   BANK6   BANK7   BANK8   BANK9  BANK10  BANK1
      +1  BANK12  BANK13  BANK14  BANK15
  3849 ;;      Params:         0       0       0       0       0       0       0       0       0       0       0       0       
      +0       0       0       0       0
  3850 ;;      Locals:         0       0       0       0       0       0       0       0       0       0       0       0       
      +0       0       0       0       0
  3851 ;;      Temps:          0       0       0       0       0       0       0       0       0       0       0       0       
      +0       0       0       0       0
  3852 ;;      Totals:         0       0       0       0       0       0       0       0       0       0       0       0       
      +0       0       0       0       0
  3853 ;;Total ram usage:        0 bytes
  3854 ;; Hardware stack levels used: 1
  3855 ;; This function calls:
  3856 ;;		Nothing
  3857 ;; This function is called by:
  3858 ;;		_I2C1_DO_RX
  3859 ;; This function uses a non-reentrant model
  3860 ;;
  3861                           
  3862                           	psect	text43
  3863   001BB6                     __ptext43:
  3864                           	callstack 0
  3865   001BB6                     _I2C1_MasterGetRxData:
  3866                           	callstack 23
  3867   001BB6                     
  3868                           ;mcc_generated_files/i2c1_master.c: 565:     return SSP1BUF;
  3869   001BB6  50C9               	movf	201,w,c	;volatile
  3870   001BB8  0012               	return		;funcret
  3871   001BBA                     __end_of_I2C1_MasterGetRxData:
  3872                           	callstack 0
  3873                           
  3874 ;; *************** function _I2C1_MasterSendNack *****************
  3875 ;; Defined at:
  3876 ;;		line 609 in file "mcc_generated_files/i2c1_master.c"
  3877 ;; Parameters:    Size  Location     Type
  3878 ;;		None
  3879 ;; Auto vars:     Size  Location     Type
  3880 ;;		None
  3881 ;; Return value:  Size  Location     Type
  3882 ;;                  1    wreg      void 
  3883 ;; Registers used:
  3884 ;;		None
  3885 ;; Tracked objects:
  3886 ;;		On entry : 0/0
  3887 ;;		On exit  : 0/0
  3888 ;;		Unchanged: 0/0
  3889 ;; Data sizes:     COMRAM   BANK0   BANK1   BANK2   BANK3   BANK4   BANK5   BANK6   BANK7   BANK8   BANK9  BANK10  BANK1
      +1  BANK12  BANK13  BANK14  BANK15
  3890 ;;      Params:         0       0       0       0       0       0       0       0       0       0       0       0       
      +0       0       0       0       0
  3891 ;;      Locals:         0       0       0       0       0       0       0       0       0       0       0       0       
      +0       0       0       0       0
  3892 ;;      Temps:          0       0       0       0       0       0       0       0       0       0       0       0       
      +0       0       0       0       0
  3893 ;;      Totals:         0       0       0       0       0       0       0       0       0       0       0       0       
      +0       0       0       0       0
  3894 ;;Total ram usage:        0 bytes
  3895 ;; Hardware stack levels used: 1
  3896 ;; This function calls:
  3897 ;;		Nothing
  3898 ;; This function is called by:
  3899 ;;		_I2C1_DO_RX_NACK_STOP
  3900 ;;		_I2C1_DO_RX_NACK_RESTART
  3901 ;; This function uses a non-reentrant model
  3902 ;;
  3903                           
  3904                           	psect	text44
  3905   001BAC                     __ptext44:
  3906                           	callstack 0
  3907   001BAC                     _I2C1_MasterSendNack:
  3908                           	callstack 23
  3909   001BAC                     
  3910                           ;mcc_generated_files/i2c1_master.c: 611:     SSP1CON2bits.ACKDT = 1;
  3911   001BAC  8AC5               	bsf	197,5,c	;volatile
  3912                           
  3913                           ;mcc_generated_files/i2c1_master.c: 612:     SSP1CON2bits.ACKEN = 1;
  3914   001BAE  88C5               	bsf	197,4,c	;volatile
  3915   001BB0  0012               	return		;funcret
  3916   001BB2                     __end_of_I2C1_MasterSendNack:
  3917                           	callstack 0
  3918                           
  3919 ;; *************** function _I2C1_MasterStartRx *****************
  3920 ;; Defined at:
  3921 ;;		line 583 in file "mcc_generated_files/i2c1_master.c"
  3922 ;; Parameters:    Size  Location     Type
  3923 ;;		None
  3924 ;; Auto vars:     Size  Location     Type
  3925 ;;		None
  3926 ;; Return value:  Size  Location     Type
  3927 ;;                  1    wreg      void 
  3928 ;; Registers used:
  3929 ;;		None
  3930 ;; Tracked objects:
  3931 ;;		On entry : 0/0
  3932 ;;		On exit  : 0/0
  3933 ;;		Unchanged: 0/0
  3934 ;; Data sizes:     COMRAM   BANK0   BANK1   BANK2   BANK3   BANK4   BANK5   BANK6   BANK7   BANK8   BANK9  BANK10  BANK1
      +1  BANK12  BANK13  BANK14  BANK15
  3935 ;;      Params:         0       0       0       0       0       0       0       0       0       0       0       0       
      +0       0       0       0       0
  3936 ;;      Locals:         0       0       0       0       0       0       0       0       0       0       0       0       
      +0       0       0       0       0
  3937 ;;      Temps:          0       0       0       0       0       0       0       0       0       0       0       0       
      +0       0       0       0       0
  3938 ;;      Totals:         0       0       0       0       0       0       0       0       0       0       0       0       
      +0       0       0       0       0
  3939 ;;Total ram usage:        0 bytes
  3940 ;; Hardware stack levels used: 1
  3941 ;; This function calls:
  3942 ;;		Nothing
  3943 ;; This function is called by:
  3944 ;;		_I2C1_DO_RCEN
  3945 ;; This function uses a non-reentrant model
  3946 ;;
  3947                           
  3948                           	psect	text45
  3949   001BBA                     __ptext45:
  3950                           	callstack 0
  3951   001BBA                     _I2C1_MasterStartRx:
  3952                           	callstack 23
  3953   001BBA                     
  3954                           ;mcc_generated_files/i2c1_master.c: 585:     SSP1CON2bits.RCEN = 1;
  3955   001BBA  86C5               	bsf	197,3,c	;volatile
  3956   001BBC  0012               	return		;funcret
  3957   001BBE                     __end_of_I2C1_MasterStartRx:
  3958                           	callstack 0
  3959                           
  3960 ;; *************** function _I2C1_CallbackReturnReset *****************
  3961 ;; Defined at:
  3962 ;;		line 525 in file "mcc_generated_files/i2c1_master.c"
  3963 ;; Parameters:    Size  Location     Type
  3964 ;;  funPtr          2   11[COMRAM] PTR void 
  3965 ;;		 -> I2C1_ReadDataBlock@bufferBlock(4), I2C1_Write2ByteRegister@data(2), I2C1_Write1ByteRegister@data(1), I2C1_Read2B
      +yteRegister@returnValue(2), 
  3966 ;;		 -> NULL(0), I2C1_Read1ByteRegister@returnValue(1), 
  3967 ;; Auto vars:     Size  Location     Type
  3968 ;;		None
  3969 ;; Return value:  Size  Location     Type
  3970 ;;                  1    wreg      enum E360
  3971 ;; Registers used:
  3972 ;;		wreg
  3973 ;; Tracked objects:
  3974 ;;		On entry : 0/0
  3975 ;;		On exit  : 0/0
  3976 ;;		Unchanged: 0/0
  3977 ;; Data sizes:     COMRAM   BANK0   BANK1   BANK2   BANK3   BANK4   BANK5   BANK6   BANK7   BANK8   BANK9  BANK10  BANK1
      +1  BANK12  BANK13  BANK14  BANK15
  3978 ;;      Params:         2       0       0       0       0       0       0       0       0       0       0       0       
      +0       0       0       0       0
  3979 ;;      Locals:         0       0       0       0       0       0       0       0       0       0       0       0       
      +0       0       0       0       0
  3980 ;;      Temps:          0       0       0       0       0       0       0       0       0       0       0       0       
      +0       0       0       0       0
  3981 ;;      Totals:         2       0       0       0       0       0       0       0       0       0       0       0       
      +0       0       0       0       0
  3982 ;;Total ram usage:        2 bytes
  3983 ;; Hardware stack levels used: 1
  3984 ;; This function calls:
  3985 ;;		Nothing
  3986 ;; This function is called by:
  3987 ;;		_I2C1_Open
  3988 ;;		_I2C1_DO_TX
  3989 ;;		_I2C1_DO_RX
  3990 ;;		_I2C1_DO_TX_EMPTY
  3991 ;;		_I2C1_DO_ADDRESS_NACK
  3992 ;;		_I2C1_DO_RX_EMPTY
  3993 ;; This function uses a non-reentrant model
  3994 ;;
  3995                           
  3996                           	psect	text46
  3997   001BBE                     __ptext46:
  3998                           	callstack 0
  3999   001BBE                     _I2C1_CallbackReturnReset:
  4000                           	callstack 23
  4001   001BBE                     
  4002                           ;mcc_generated_files/i2c1_master.c: 525: i2c1_operations_t I2C1_CallbackReturnReset(void
      +                           *funPtr);mcc_generated_files/i2c1_master.c: 526: {;mcc_generated_files/i2c1_master.c: 5
      +                          27:     return I2C1_RESET_LINK;
  4003   001BBE  0E05               	movlw	5
  4004   001BC0  0012               	return		;funcret
  4005   001BC2                     __end_of_I2C1_CallbackReturnReset:
  4006                           	callstack 0
  4007                           
  4008 ;; *************** function _I2C1_CallbackReturnStop *****************
  4009 ;; Defined at:
  4010 ;;		line 520 in file "mcc_generated_files/i2c1_master.c"
  4011 ;; Parameters:    Size  Location     Type
  4012 ;;  funPtr          2   11[COMRAM] PTR void 
  4013 ;;		 -> I2C1_ReadDataBlock@bufferBlock(4), I2C1_Write2ByteRegister@data(2), I2C1_Write1ByteRegister@data(1), I2C1_Read2B
      +yteRegister@returnValue(2), 
  4014 ;;		 -> NULL(0), I2C1_Read1ByteRegister@returnValue(1), 
  4015 ;; Auto vars:     Size  Location     Type
  4016 ;;		None
  4017 ;; Return value:  Size  Location     Type
  4018 ;;                  1    wreg      enum E360
  4019 ;; Registers used:
  4020 ;;		wreg
  4021 ;; Tracked objects:
  4022 ;;		On entry : 0/0
  4023 ;;		On exit  : 0/0
  4024 ;;		Unchanged: 0/0
  4025 ;; Data sizes:     COMRAM   BANK0   BANK1   BANK2   BANK3   BANK4   BANK5   BANK6   BANK7   BANK8   BANK9  BANK10  BANK1
      +1  BANK12  BANK13  BANK14  BANK15
  4026 ;;      Params:         2       0       0       0       0       0       0       0       0       0       0       0       
      +0       0       0       0       0
  4027 ;;      Locals:         0       0       0       0       0       0       0       0       0       0       0       0       
      +0       0       0       0       0
  4028 ;;      Temps:          0       0       0       0       0       0       0       0       0       0       0       0       
      +0       0       0       0       0
  4029 ;;      Totals:         2       0       0       0       0       0       0       0       0       0       0       0       
      +0       0       0       0       0
  4030 ;;Total ram usage:        2 bytes
  4031 ;; Hardware stack levels used: 1
  4032 ;; This function calls:
  4033 ;;		Nothing
  4034 ;; This function is called by:
  4035 ;;		_I2C1_Open
  4036 ;;		_I2C1_SetCallback
  4037 ;;		_I2C1_DO_TX
  4038 ;;		_I2C1_DO_RX
  4039 ;;		_I2C1_DO_TX_EMPTY
  4040 ;;		_I2C1_DO_ADDRESS_NACK
  4041 ;;		_I2C1_DO_RX_EMPTY
  4042 ;; This function uses a non-reentrant model
  4043 ;;
  4044                           
  4045                           	psect	text47
  4046   001BC2                     __ptext47:
  4047                           	callstack 0
  4048   001BC2                     _I2C1_CallbackReturnStop:
  4049                           	callstack 23
  4050   001BC2                     
  4051                           ;mcc_generated_files/i2c1_master.c: 520: i2c1_operations_t I2C1_CallbackReturnStop(void 
      +                          *funPtr);mcc_generated_files/i2c1_master.c: 521: {;mcc_generated_files/i2c1_master.c: 52
      +                          2:     return I2C1_STOP;
  4052   001BC2  0E01               	movlw	1
  4053   001BC4  0012               	return		;funcret
  4054   001BC6                     __end_of_I2C1_CallbackReturnStop:
  4055                           	callstack 0
  4056                           
  4057 ;; *************** function _rdBlkRegCompleteHandler *****************
  4058 ;; Defined at:
  4059 ;;		line 170 in file "mcc_generated_files/examples/i2c1_master_example.c"
  4060 ;; Parameters:    Size  Location     Type
  4061 ;;  ptr             2   11[COMRAM] PTR void 
  4062 ;;		 -> I2C1_ReadDataBlock@bufferBlock(4), I2C1_Write2ByteRegister@data(2), I2C1_Write1ByteRegister@data(1), I2C1_Read2B
      +yteRegister@returnValue(2), 
  4063 ;;		 -> NULL(0), I2C1_Read1ByteRegister@returnValue(1), 
  4064 ;; Auto vars:     Size  Location     Type
  4065 ;;		None
  4066 ;; Return value:  Size  Location     Type
  4067 ;;                  1    wreg      enum E360
  4068 ;; Registers used:
  4069 ;;		wreg, fsr2l, fsr2h, status,2, status,0, prodl, prodh, cstack
  4070 ;; Tracked objects:
  4071 ;;		On entry : 0/0
  4072 ;;		On exit  : 0/0
  4073 ;;		Unchanged: 0/0
  4074 ;; Data sizes:     COMRAM   BANK0   BANK1   BANK2   BANK3   BANK4   BANK5   BANK6   BANK7   BANK8   BANK9  BANK10  BANK1
      +1  BANK12  BANK13  BANK14  BANK15
  4075 ;;      Params:         2       0       0       0       0       0       0       0       0       0       0       0       
      +0       0       0       0       0
  4076 ;;      Locals:         0       0       0       0       0       0       0       0       0       0       0       0       
      +0       0       0       0       0
  4077 ;;      Temps:          0       0       0       0       0       0       0       0       0       0       0       0       
      +0       0       0       0       0
  4078 ;;      Totals:         2       0       0       0       0       0       0       0       0       0       0       0       
      +0       0       0       0       0
  4079 ;;Total ram usage:        2 bytes
  4080 ;; Hardware stack levels used: 1
  4081 ;; Hardware stack levels required when called: 2
  4082 ;; This function calls:
  4083 ;;		_I2C1_SetBuffer
  4084 ;;		_I2C1_SetDataCompleteCallback
  4085 ;; This function is called by:
  4086 ;;		_I2C1_ReadDataBlock
  4087 ;;		_I2C1_DO_TX
  4088 ;;		_I2C1_DO_RX
  4089 ;;		_I2C1_DO_TX_EMPTY
  4090 ;;		_I2C1_DO_ADDRESS_NACK
  4091 ;;		_I2C1_DO_RX_EMPTY
  4092 ;; This function uses a non-reentrant model
  4093 ;;
  4094                           
  4095                           	psect	text48
  4096   00179C                     __ptext48:
  4097                           	callstack 0
  4098   00179C                     _rdBlkRegCompleteHandler:
  4099                           	callstack 21
  4100   00179C                     
  4101                           ;mcc_generated_files/examples/i2c1_master_example.c: 170: static i2c1_operations_t rdBlk
      +                          RegCompleteHandler(void *ptr);mcc_generated_files/examples/i2c1_master_example.c: 171: {
      +                          ;mcc_generated_files/examples/i2c1_master_example.c: 172:     I2C1_SetBuffer(((i2c1_buff
      +                          er_t *)ptr)->data,((i2c1_buffer_t*)ptr)->len);
  4102   00179C  EE20 F002          	lfsr	2,2
  4103   0017A0  503B               	movf	rdBlkRegCompleteHandler@ptr^0,w,c
  4104   0017A2  26D9               	addwf	fsr2l,f,c
  4105   0017A4  503C               	movf	(rdBlkRegCompleteHandler@ptr+1)^0,w,c
  4106   0017A6  22DA               	addwfc	fsr2h,f,c
  4107   0017A8  CFDE F030          	movff	postinc2,I2C1_SetBuffer@buffer
  4108   0017AC  CFDD F031          	movff	postdec2,I2C1_SetBuffer@buffer+1
  4109   0017B0  C03B  FFD9         	movff	rdBlkRegCompleteHandler@ptr,fsr2l
  4110   0017B4  C03C  FFDA         	movff	rdBlkRegCompleteHandler@ptr+1,fsr2h
  4111   0017B8  CFDE F032          	movff	postinc2,I2C1_SetBuffer@bufferSize
  4112   0017BC  CFDD F033          	movff	postdec2,I2C1_SetBuffer@bufferSize+1
  4113   0017C0  EC08  F00D         	call	_I2C1_SetBuffer	;wreg free
  4114   0017C4                     
  4115                           ;mcc_generated_files/examples/i2c1_master_example.c: 173:     I2C1_SetDataCompleteCallba
      +                          ck(((void*)0),((void*)0));
  4116   0017C4  0E00               	movlw	0
  4117   0017C6  6E36               	movwf	I2C1_SetDataCompleteCallback@cb^0,c
  4118   0017C8  0E00               	movlw	0
  4119   0017CA  6E37               	movwf	(I2C1_SetDataCompleteCallback@cb+1)^0,c
  4120   0017CC  0E00               	movlw	0
  4121   0017CE  6E38               	movwf	(I2C1_SetDataCompleteCallback@cb+2)^0,c
  4122   0017D0  0E00               	movlw	0
  4123   0017D2  6E39               	movwf	I2C1_SetDataCompleteCallback@ptr^0,c
  4124   0017D4  0E00               	movlw	0
  4125   0017D6  6E3A               	movwf	(I2C1_SetDataCompleteCallback@ptr+1)^0,c
  4126   0017D8  EC35  F00D         	call	_I2C1_SetDataCompleteCallback	;wreg free
  4127   0017DC                     
  4128                           ;mcc_generated_files/examples/i2c1_master_example.c: 174:     return I2C1_RESTART_READ;
  4129   0017DC  0E02               	movlw	2
  4130   0017DE  0012               	return		;funcret
  4131   0017E0                     __end_of_rdBlkRegCompleteHandler:
  4132                           	callstack 0
  4133                           
  4134 ;; *************** function _wr1RegCompleteHandler *****************
  4135 ;; Defined at:
  4136 ;;		line 156 in file "mcc_generated_files/examples/i2c1_master_example.c"
  4137 ;; Parameters:    Size  Location     Type
  4138 ;;  ptr             2   11[COMRAM] PTR void 
  4139 ;;		 -> I2C1_ReadDataBlock@bufferBlock(4), I2C1_Write2ByteRegister@data(2), I2C1_Write1ByteRegister@data(1), I2C1_Read2B
      +yteRegister@returnValue(2), 
  4140 ;;		 -> NULL(0), I2C1_Read1ByteRegister@returnValue(1), 
  4141 ;; Auto vars:     Size  Location     Type
  4142 ;;		None
  4143 ;; Return value:  Size  Location     Type
  4144 ;;                  1    wreg      enum E360
  4145 ;; Registers used:
  4146 ;;		wreg, fsr2l, fsr2h, status,2, status,0, prodl, prodh, cstack
  4147 ;; Tracked objects:
  4148 ;;		On entry : 0/0
  4149 ;;		On exit  : 0/0
  4150 ;;		Unchanged: 0/0
  4151 ;; Data sizes:     COMRAM   BANK0   BANK1   BANK2   BANK3   BANK4   BANK5   BANK6   BANK7   BANK8   BANK9  BANK10  BANK1
      +1  BANK12  BANK13  BANK14  BANK15
  4152 ;;      Params:         2       0       0       0       0       0       0       0       0       0       0       0       
      +0       0       0       0       0
  4153 ;;      Locals:         0       0       0       0       0       0       0       0       0       0       0       0       
      +0       0       0       0       0
  4154 ;;      Temps:          0       0       0       0       0       0       0       0       0       0       0       0       
      +0       0       0       0       0
  4155 ;;      Totals:         2       0       0       0       0       0       0       0       0       0       0       0       
      +0       0       0       0       0
  4156 ;;Total ram usage:        2 bytes
  4157 ;; Hardware stack levels used: 1
  4158 ;; Hardware stack levels required when called: 2
  4159 ;; This function calls:
  4160 ;;		_I2C1_SetBuffer
  4161 ;;		_I2C1_SetDataCompleteCallback
  4162 ;; This function is called by:
  4163 ;;		_I2C1_Write1ByteRegister
  4164 ;;		_I2C1_DO_TX
  4165 ;;		_I2C1_DO_RX
  4166 ;;		_I2C1_DO_TX_EMPTY
  4167 ;;		_I2C1_DO_ADDRESS_NACK
  4168 ;;		_I2C1_DO_RX_EMPTY
  4169 ;; This function uses a non-reentrant model
  4170 ;;
  4171                           
  4172                           	psect	text49
  4173   0018D8                     __ptext49:
  4174                           	callstack 0
  4175   0018D8                     _wr1RegCompleteHandler:
  4176                           	callstack 21
  4177   0018D8                     
  4178                           ;mcc_generated_files/examples/i2c1_master_example.c: 156: static i2c1_operations_t wr1Re
      +                          gCompleteHandler(void *ptr);mcc_generated_files/examples/i2c1_master_example.c: 157: {;m
      +                          cc_generated_files/examples/i2c1_master_example.c: 158:     I2C1_SetBuffer(ptr,1);
  4179   0018D8  C03B  F030         	movff	wr1RegCompleteHandler@ptr,I2C1_SetBuffer@buffer
  4180   0018DC  C03C  F031         	movff	wr1RegCompleteHandler@ptr+1,I2C1_SetBuffer@buffer+1
  4181   0018E0  0E00               	movlw	0
  4182   0018E2  6E33               	movwf	(I2C1_SetBuffer@bufferSize+1)^0,c
  4183   0018E4  0E01               	movlw	1
  4184   0018E6  6E32               	movwf	I2C1_SetBuffer@bufferSize^0,c
  4185   0018E8  EC08  F00D         	call	_I2C1_SetBuffer	;wreg free
  4186   0018EC                     
  4187                           ;mcc_generated_files/examples/i2c1_master_example.c: 159:     I2C1_SetDataCompleteCallba
      +                          ck(((void*)0),((void*)0));
  4188   0018EC  0E00               	movlw	0
  4189   0018EE  6E36               	movwf	I2C1_SetDataCompleteCallback@cb^0,c
  4190   0018F0  0E00               	movlw	0
  4191   0018F2  6E37               	movwf	(I2C1_SetDataCompleteCallback@cb+1)^0,c
  4192   0018F4  0E00               	movlw	0
  4193   0018F6  6E38               	movwf	(I2C1_SetDataCompleteCallback@cb+2)^0,c
  4194   0018F8  0E00               	movlw	0
  4195   0018FA  6E39               	movwf	I2C1_SetDataCompleteCallback@ptr^0,c
  4196   0018FC  0E00               	movlw	0
  4197   0018FE  6E3A               	movwf	(I2C1_SetDataCompleteCallback@ptr+1)^0,c
  4198   001900  EC35  F00D         	call	_I2C1_SetDataCompleteCallback	;wreg free
  4199   001904                     
  4200                           ;mcc_generated_files/examples/i2c1_master_example.c: 160:     return I2C1_CONTINUE;
  4201   001904  0E04               	movlw	4
  4202   001906  0012               	return		;funcret
  4203   001908                     __end_of_wr1RegCompleteHandler:
  4204                           	callstack 0
  4205                           
  4206 ;; *************** function _rd2RegCompleteHandler *****************
  4207 ;; Defined at:
  4208 ;;		line 149 in file "mcc_generated_files/examples/i2c1_master_example.c"
  4209 ;; Parameters:    Size  Location     Type
  4210 ;;  ptr             2   11[COMRAM] PTR void 
  4211 ;;		 -> I2C1_ReadDataBlock@bufferBlock(4), I2C1_Write2ByteRegister@data(2), I2C1_Write1ByteRegister@data(1), I2C1_Read2B
      +yteRegister@returnValue(2), 
  4212 ;;		 -> NULL(0), I2C1_Read1ByteRegister@returnValue(1), 
  4213 ;; Auto vars:     Size  Location     Type
  4214 ;;		None
  4215 ;; Return value:  Size  Location     Type
  4216 ;;                  1    wreg      enum E360
  4217 ;; Registers used:
  4218 ;;		wreg, fsr2l, fsr2h, status,2, status,0, prodl, prodh, cstack
  4219 ;; Tracked objects:
  4220 ;;		On entry : 0/0
  4221 ;;		On exit  : 0/0
  4222 ;;		Unchanged: 0/0
  4223 ;; Data sizes:     COMRAM   BANK0   BANK1   BANK2   BANK3   BANK4   BANK5   BANK6   BANK7   BANK8   BANK9  BANK10  BANK1
      +1  BANK12  BANK13  BANK14  BANK15
  4224 ;;      Params:         2       0       0       0       0       0       0       0       0       0       0       0       
      +0       0       0       0       0
  4225 ;;      Locals:         0       0       0       0       0       0       0       0       0       0       0       0       
      +0       0       0       0       0
  4226 ;;      Temps:          0       0       0       0       0       0       0       0       0       0       0       0       
      +0       0       0       0       0
  4227 ;;      Totals:         2       0       0       0       0       0       0       0       0       0       0       0       
      +0       0       0       0       0
  4228 ;;Total ram usage:        2 bytes
  4229 ;; Hardware stack levels used: 1
  4230 ;; Hardware stack levels required when called: 2
  4231 ;; This function calls:
  4232 ;;		_I2C1_SetBuffer
  4233 ;;		_I2C1_SetDataCompleteCallback
  4234 ;; This function is called by:
  4235 ;;		_I2C1_Read2ByteRegister
  4236 ;;		_I2C1_DO_TX
  4237 ;;		_I2C1_DO_RX
  4238 ;;		_I2C1_DO_TX_EMPTY
  4239 ;;		_I2C1_DO_ADDRESS_NACK
  4240 ;;		_I2C1_DO_RX_EMPTY
  4241 ;; This function uses a non-reentrant model
  4242 ;;
  4243                           
  4244                           	psect	text50
  4245   001908                     __ptext50:
  4246                           	callstack 0
  4247   001908                     _rd2RegCompleteHandler:
  4248                           	callstack 21
  4249   001908                     
  4250                           ;mcc_generated_files/examples/i2c1_master_example.c: 149: static i2c1_operations_t rd2Re
      +                          gCompleteHandler(void *ptr);mcc_generated_files/examples/i2c1_master_example.c: 150: {;m
      +                          cc_generated_files/examples/i2c1_master_example.c: 151:     I2C1_SetBuffer(ptr,2);
  4251   001908  C03B  F030         	movff	rd2RegCompleteHandler@ptr,I2C1_SetBuffer@buffer
  4252   00190C  C03C  F031         	movff	rd2RegCompleteHandler@ptr+1,I2C1_SetBuffer@buffer+1
  4253   001910  0E00               	movlw	0
  4254   001912  6E33               	movwf	(I2C1_SetBuffer@bufferSize+1)^0,c
  4255   001914  0E02               	movlw	2
  4256   001916  6E32               	movwf	I2C1_SetBuffer@bufferSize^0,c
  4257   001918  EC08  F00D         	call	_I2C1_SetBuffer	;wreg free
  4258   00191C                     
  4259                           ;mcc_generated_files/examples/i2c1_master_example.c: 152:     I2C1_SetDataCompleteCallba
      +                          ck(((void*)0),((void*)0));
  4260   00191C  0E00               	movlw	0
  4261   00191E  6E36               	movwf	I2C1_SetDataCompleteCallback@cb^0,c
  4262   001920  0E00               	movlw	0
  4263   001922  6E37               	movwf	(I2C1_SetDataCompleteCallback@cb+1)^0,c
  4264   001924  0E00               	movlw	0
  4265   001926  6E38               	movwf	(I2C1_SetDataCompleteCallback@cb+2)^0,c
  4266   001928  0E00               	movlw	0
  4267   00192A  6E39               	movwf	I2C1_SetDataCompleteCallback@ptr^0,c
  4268   00192C  0E00               	movlw	0
  4269   00192E  6E3A               	movwf	(I2C1_SetDataCompleteCallback@ptr+1)^0,c
  4270   001930  EC35  F00D         	call	_I2C1_SetDataCompleteCallback	;wreg free
  4271   001934                     
  4272                           ;mcc_generated_files/examples/i2c1_master_example.c: 153:     return I2C1_RESTART_READ;
  4273   001934  0E02               	movlw	2
  4274   001936  0012               	return		;funcret
  4275   001938                     __end_of_rd2RegCompleteHandler:
  4276                           	callstack 0
  4277                           
  4278 ;; *************** function _rd1RegCompleteHandler *****************
  4279 ;; Defined at:
  4280 ;;		line 142 in file "mcc_generated_files/examples/i2c1_master_example.c"
  4281 ;; Parameters:    Size  Location     Type
  4282 ;;  ptr             2   11[COMRAM] PTR void 
  4283 ;;		 -> I2C1_ReadDataBlock@bufferBlock(4), I2C1_Write2ByteRegister@data(2), I2C1_Write1ByteRegister@data(1), I2C1_Read2B
      +yteRegister@returnValue(2), 
  4284 ;;		 -> NULL(0), I2C1_Read1ByteRegister@returnValue(1), 
  4285 ;; Auto vars:     Size  Location     Type
  4286 ;;		None
  4287 ;; Return value:  Size  Location     Type
  4288 ;;                  1    wreg      enum E360
  4289 ;; Registers used:
  4290 ;;		wreg, fsr2l, fsr2h, status,2, status,0, prodl, prodh, cstack
  4291 ;; Tracked objects:
  4292 ;;		On entry : 0/0
  4293 ;;		On exit  : 0/0
  4294 ;;		Unchanged: 0/0
  4295 ;; Data sizes:     COMRAM   BANK0   BANK1   BANK2   BANK3   BANK4   BANK5   BANK6   BANK7   BANK8   BANK9  BANK10  BANK1
      +1  BANK12  BANK13  BANK14  BANK15
  4296 ;;      Params:         2       0       0       0       0       0       0       0       0       0       0       0       
      +0       0       0       0       0
  4297 ;;      Locals:         0       0       0       0       0       0       0       0       0       0       0       0       
      +0       0       0       0       0
  4298 ;;      Temps:          0       0       0       0       0       0       0       0       0       0       0       0       
      +0       0       0       0       0
  4299 ;;      Totals:         2       0       0       0       0       0       0       0       0       0       0       0       
      +0       0       0       0       0
  4300 ;;Total ram usage:        2 bytes
  4301 ;; Hardware stack levels used: 1
  4302 ;; Hardware stack levels required when called: 2
  4303 ;; This function calls:
  4304 ;;		_I2C1_SetBuffer
  4305 ;;		_I2C1_SetDataCompleteCallback
  4306 ;; This function is called by:
  4307 ;;		_I2C1_Read1ByteRegister
  4308 ;;		_I2C1_DO_TX
  4309 ;;		_I2C1_DO_RX
  4310 ;;		_I2C1_DO_TX_EMPTY
  4311 ;;		_I2C1_DO_ADDRESS_NACK
  4312 ;;		_I2C1_DO_RX_EMPTY
  4313 ;; This function uses a non-reentrant model
  4314 ;;
  4315                           
  4316                           	psect	text51
  4317   001938                     __ptext51:
  4318                           	callstack 0
  4319   001938                     _rd1RegCompleteHandler:
  4320                           	callstack 21
  4321   001938                     
  4322                           ;mcc_generated_files/examples/i2c1_master_example.c: 142: static i2c1_operations_t rd1Re
      +                          gCompleteHandler(void *ptr);mcc_generated_files/examples/i2c1_master_example.c: 143: {;m
      +                          cc_generated_files/examples/i2c1_master_example.c: 144:     I2C1_SetBuffer(ptr,1);
  4323   001938  C03B  F030         	movff	rd1RegCompleteHandler@ptr,I2C1_SetBuffer@buffer
  4324   00193C  C03C  F031         	movff	rd1RegCompleteHandler@ptr+1,I2C1_SetBuffer@buffer+1
  4325   001940  0E00               	movlw	0
  4326   001942  6E33               	movwf	(I2C1_SetBuffer@bufferSize+1)^0,c
  4327   001944  0E01               	movlw	1
  4328   001946  6E32               	movwf	I2C1_SetBuffer@bufferSize^0,c
  4329   001948  EC08  F00D         	call	_I2C1_SetBuffer	;wreg free
  4330   00194C                     
  4331                           ;mcc_generated_files/examples/i2c1_master_example.c: 145:     I2C1_SetDataCompleteCallba
      +                          ck(((void*)0),((void*)0));
  4332   00194C  0E00               	movlw	0
  4333   00194E  6E36               	movwf	I2C1_SetDataCompleteCallback@cb^0,c
  4334   001950  0E00               	movlw	0
  4335   001952  6E37               	movwf	(I2C1_SetDataCompleteCallback@cb+1)^0,c
  4336   001954  0E00               	movlw	0
  4337   001956  6E38               	movwf	(I2C1_SetDataCompleteCallback@cb+2)^0,c
  4338   001958  0E00               	movlw	0
  4339   00195A  6E39               	movwf	I2C1_SetDataCompleteCallback@ptr^0,c
  4340   00195C  0E00               	movlw	0
  4341   00195E  6E3A               	movwf	(I2C1_SetDataCompleteCallback@ptr+1)^0,c
  4342   001960  EC35  F00D         	call	_I2C1_SetDataCompleteCallback	;wreg free
  4343   001964                     
  4344                           ;mcc_generated_files/examples/i2c1_master_example.c: 146:     return I2C1_RESTART_READ;
  4345   001964  0E02               	movlw	2
  4346   001966  0012               	return		;funcret
  4347   001968                     __end_of_rd1RegCompleteHandler:
  4348                           	callstack 0
  4349                           
  4350 ;; *************** function _wr2RegCompleteHandler *****************
  4351 ;; Defined at:
  4352 ;;		line 163 in file "mcc_generated_files/examples/i2c1_master_example.c"
  4353 ;; Parameters:    Size  Location     Type
  4354 ;;  ptr             2   11[COMRAM] PTR void 
  4355 ;;		 -> I2C1_ReadDataBlock@bufferBlock(4), I2C1_Write2ByteRegister@data(2), I2C1_Write1ByteRegister@data(1), I2C1_Read2B
      +yteRegister@returnValue(2), 
  4356 ;;		 -> NULL(0), I2C1_Read1ByteRegister@returnValue(1), 
  4357 ;; Auto vars:     Size  Location     Type
  4358 ;;		None
  4359 ;; Return value:  Size  Location     Type
  4360 ;;                  1    wreg      enum E360
  4361 ;; Registers used:
  4362 ;;		wreg, fsr2l, fsr2h, status,2, status,0, prodl, prodh, cstack
  4363 ;; Tracked objects:
  4364 ;;		On entry : 0/0
  4365 ;;		On exit  : 0/0
  4366 ;;		Unchanged: 0/0
  4367 ;; Data sizes:     COMRAM   BANK0   BANK1   BANK2   BANK3   BANK4   BANK5   BANK6   BANK7   BANK8   BANK9  BANK10  BANK1
      +1  BANK12  BANK13  BANK14  BANK15
  4368 ;;      Params:         2       0       0       0       0       0       0       0       0       0       0       0       
      +0       0       0       0       0
  4369 ;;      Locals:         0       0       0       0       0       0       0       0       0       0       0       0       
      +0       0       0       0       0
  4370 ;;      Temps:          0       0       0       0       0       0       0       0       0       0       0       0       
      +0       0       0       0       0
  4371 ;;      Totals:         2       0       0       0       0       0       0       0       0       0       0       0       
      +0       0       0       0       0
  4372 ;;Total ram usage:        2 bytes
  4373 ;; Hardware stack levels used: 1
  4374 ;; Hardware stack levels required when called: 2
  4375 ;; This function calls:
  4376 ;;		_I2C1_SetBuffer
  4377 ;;		_I2C1_SetDataCompleteCallback
  4378 ;; This function is called by:
  4379 ;;		_I2C1_Write2ByteRegister
  4380 ;;		_I2C1_DO_TX
  4381 ;;		_I2C1_DO_RX
  4382 ;;		_I2C1_DO_TX_EMPTY
  4383 ;;		_I2C1_DO_ADDRESS_NACK
  4384 ;;		_I2C1_DO_RX_EMPTY
  4385 ;; This function uses a non-reentrant model
  4386 ;;
  4387                           
  4388                           	psect	text52
  4389   001968                     __ptext52:
  4390                           	callstack 0
  4391   001968                     _wr2RegCompleteHandler:
  4392                           	callstack 21
  4393   001968                     
  4394                           ;mcc_generated_files/examples/i2c1_master_example.c: 163: static i2c1_operations_t wr2Re
      +                          gCompleteHandler(void *ptr);mcc_generated_files/examples/i2c1_master_example.c: 164: {;m
      +                          cc_generated_files/examples/i2c1_master_example.c: 165:     I2C1_SetBuffer(ptr,2);
  4395   001968  C03B  F030         	movff	wr2RegCompleteHandler@ptr,I2C1_SetBuffer@buffer
  4396   00196C  C03C  F031         	movff	wr2RegCompleteHandler@ptr+1,I2C1_SetBuffer@buffer+1
  4397   001970  0E00               	movlw	0
  4398   001972  6E33               	movwf	(I2C1_SetBuffer@bufferSize+1)^0,c
  4399   001974  0E02               	movlw	2
  4400   001976  6E32               	movwf	I2C1_SetBuffer@bufferSize^0,c
  4401   001978  EC08  F00D         	call	_I2C1_SetBuffer	;wreg free
  4402   00197C                     
  4403                           ;mcc_generated_files/examples/i2c1_master_example.c: 166:     I2C1_SetDataCompleteCallba
      +                          ck(((void*)0),((void*)0));
  4404   00197C  0E00               	movlw	0
  4405   00197E  6E36               	movwf	I2C1_SetDataCompleteCallback@cb^0,c
  4406   001980  0E00               	movlw	0
  4407   001982  6E37               	movwf	(I2C1_SetDataCompleteCallback@cb+1)^0,c
  4408   001984  0E00               	movlw	0
  4409   001986  6E38               	movwf	(I2C1_SetDataCompleteCallback@cb+2)^0,c
  4410   001988  0E00               	movlw	0
  4411   00198A  6E39               	movwf	I2C1_SetDataCompleteCallback@ptr^0,c
  4412   00198C  0E00               	movlw	0
  4413   00198E  6E3A               	movwf	(I2C1_SetDataCompleteCallback@ptr+1)^0,c
  4414   001990  EC35  F00D         	call	_I2C1_SetDataCompleteCallback	;wreg free
  4415   001994                     
  4416                           ;mcc_generated_files/examples/i2c1_master_example.c: 167:     return I2C1_CONTINUE;
  4417   001994  0E04               	movlw	4
  4418   001996  0012               	return		;funcret
  4419   001998                     __end_of_wr2RegCompleteHandler:
  4420                           	callstack 0
  4421                           
  4422 ;; *************** function _I2C1_SetDataCompleteCallback *****************
  4423 ;; Defined at:
  4424 ;;		line 273 in file "mcc_generated_files/i2c1_master.c"
  4425 ;; Parameters:    Size  Location     Type
  4426 ;;  cb              3    6[COMRAM] PTR FTN(PTR void ,)enum 
  4427 ;;		 -> Absolute function(1), rdBlkRegCompleteHandler(1), wr2RegCompleteHandler(1), wr1RegCompleteHandler(1), 
  4428 ;;		 -> rd2RegCompleteHandler(1), rd1RegCompleteHandler(1), 
  4429 ;;  ptr             2    9[COMRAM] PTR void 
  4430 ;;		 -> I2C1_ReadDataBlock@bufferBlock(4), I2C1_Write2ByteRegister@data(2), I2C1_Write1ByteRegister@data(1), I2C1_Read2B
      +yteRegister@returnValue(2), 
  4431 ;;		 -> NULL(0), I2C1_Read1ByteRegister@returnValue(1), 
  4432 ;; Auto vars:     Size  Location     Type
  4433 ;;		None
  4434 ;; Return value:  Size  Location     Type
  4435 ;;                  1    wreg      void 
  4436 ;; Registers used:
  4437 ;;		wreg, fsr2l, fsr2h, status,2, status,0, prodl, prodh, cstack
  4438 ;; Tracked objects:
  4439 ;;		On entry : 0/0
  4440 ;;		On exit  : 0/0
  4441 ;;		Unchanged: 0/0
  4442 ;; Data sizes:     COMRAM   BANK0   BANK1   BANK2   BANK3   BANK4   BANK5   BANK6   BANK7   BANK8   BANK9  BANK10  BANK1
      +1  BANK12  BANK13  BANK14  BANK15
  4443 ;;      Params:         5       0       0       0       0       0       0       0       0       0       0       0       
      +0       0       0       0       0
  4444 ;;      Locals:         0       0       0       0       0       0       0       0       0       0       0       0       
      +0       0       0       0       0
  4445 ;;      Temps:          0       0       0       0       0       0       0       0       0       0       0       0       
      +0       0       0       0       0
  4446 ;;      Totals:         5       0       0       0       0       0       0       0       0       0       0       0       
      +0       0       0       0       0
  4447 ;;Total ram usage:        5 bytes
  4448 ;; Hardware stack levels used: 1
  4449 ;; Hardware stack levels required when called: 1
  4450 ;; This function calls:
  4451 ;;		_I2C1_SetCallback
  4452 ;; This function is called by:
  4453 ;;		_I2C1_Write1ByteRegister
  4454 ;;		_I2C1_ReadDataBlock
  4455 ;;		_rd1RegCompleteHandler
  4456 ;;		_rd2RegCompleteHandler
  4457 ;;		_wr1RegCompleteHandler
  4458 ;;		_wr2RegCompleteHandler
  4459 ;;		_rdBlkRegCompleteHandler
  4460 ;;		_I2C1_Read1ByteRegister
  4461 ;;		_I2C1_Read2ByteRegister
  4462 ;;		_I2C1_Write2ByteRegister
  4463 ;; This function uses a non-reentrant model
  4464 ;;
  4465                           
  4466                           	psect	text53
  4467   001A6A                     __ptext53:
  4468                           	callstack 0
  4469   001A6A                     _I2C1_SetDataCompleteCallback:
  4470                           	callstack 27
  4471   001A6A                     
  4472                           ;mcc_generated_files/i2c1_master.c: 273: void I2C1_SetDataCompleteCallback(i2c1_callback
      +                          _t cb, void *ptr);mcc_generated_files/i2c1_master.c: 274: {;mcc_generated_files/i2c1_mas
      +                          ter.c: 275:     I2C1_SetCallback(I2C1_DATA_COMPLETE, cb, ptr);
  4473   001A6A  C036  F030         	movff	I2C1_SetDataCompleteCallback@cb,I2C1_SetCallback@cb
  4474   001A6E  C037  F031         	movff	I2C1_SetDataCompleteCallback@cb+1,I2C1_SetCallback@cb+1
  4475   001A72  C038  F032         	movff	I2C1_SetDataCompleteCallback@cb+2,I2C1_SetCallback@cb+2
  4476   001A76  C039  F033         	movff	I2C1_SetDataCompleteCallback@ptr,I2C1_SetCallback@ptr
  4477   001A7A  C03A  F034         	movff	I2C1_SetDataCompleteCallback@ptr+1,I2C1_SetCallback@ptr+1
  4478   001A7E  0E00               	movlw	0
  4479   001A80  EC52  F00A         	call	_I2C1_SetCallback
  4480   001A84  0012               	return		;funcret
  4481   001A86                     __end_of_I2C1_SetDataCompleteCallback:
  4482                           	callstack 0
  4483                           
  4484 ;; *************** function _I2C1_SetCallback *****************
  4485 ;; Defined at:
  4486 ;;		line 298 in file "mcc_generated_files/i2c1_master.c"
  4487 ;; Parameters:    Size  Location     Type
  4488 ;;  idx             1    wreg     enum E6892
  4489 ;;  cb              3    0[COMRAM] PTR FTN(PTR void ,)enum 
  4490 ;;		 -> Absolute function(1), rdBlkRegCompleteHandler(1), wr2RegCompleteHandler(1), wr1RegCompleteHandler(1), 
  4491 ;;		 -> rd2RegCompleteHandler(1), rd1RegCompleteHandler(1), 
  4492 ;;  ptr             2    3[COMRAM] PTR void 
  4493 ;;		 -> I2C1_ReadDataBlock@bufferBlock(4), I2C1_Write2ByteRegister@data(2), I2C1_Write1ByteRegister@data(1), I2C1_Read2B
      +yteRegister@returnValue(2), 
  4494 ;;		 -> NULL(0), I2C1_Read1ByteRegister@returnValue(1), 
  4495 ;; Auto vars:     Size  Location     Type
  4496 ;;  idx             1    5[COMRAM] enum E6892
  4497 ;; Return value:  Size  Location     Type
  4498 ;;                  1    wreg      void 
  4499 ;; Registers used:
  4500 ;;		wreg, fsr2l, fsr2h, status,2, status,0, prodl, prodh
  4501 ;; Tracked objects:
  4502 ;;		On entry : 0/0
  4503 ;;		On exit  : 0/0
  4504 ;;		Unchanged: 0/0
  4505 ;; Data sizes:     COMRAM   BANK0   BANK1   BANK2   BANK3   BANK4   BANK5   BANK6   BANK7   BANK8   BANK9  BANK10  BANK1
      +1  BANK12  BANK13  BANK14  BANK15
  4506 ;;      Params:         5       0       0       0       0       0       0       0       0       0       0       0       
      +0       0       0       0       0
  4507 ;;      Locals:         1       0       0       0       0       0       0       0       0       0       0       0       
      +0       0       0       0       0
  4508 ;;      Temps:          0       0       0       0       0       0       0       0       0       0       0       0       
      +0       0       0       0       0
  4509 ;;      Totals:         6       0       0       0       0       0       0       0       0       0       0       0       
      +0       0       0       0       0
  4510 ;;Total ram usage:        6 bytes
  4511 ;; Hardware stack levels used: 1
  4512 ;; This function calls:
  4513 ;;		Nothing
  4514 ;; This function is called by:
  4515 ;;		_I2C1_SetDataCompleteCallback
  4516 ;;		_I2C1_SetAddressNackCallback
  4517 ;;		_I2C1_SetWriteCollisionCallback
  4518 ;;		_I2C1_SetDataNackCallback
  4519 ;;		_I2C1_SetTimeoutCallback
  4520 ;; This function uses a non-reentrant model
  4521 ;;
  4522                           
  4523                           	psect	text54
  4524   0014A4                     __ptext54:
  4525                           	callstack 0
  4526   0014A4                     _I2C1_SetCallback:
  4527                           	callstack 27
  4528                           
  4529                           ;incstack = 0
  4530                           ;I2C1_SetCallback@idx stored from wreg
  4531   0014A4  6E35               	movwf	I2C1_SetCallback@idx^0,c
  4532   0014A6                     
  4533                           ;mcc_generated_files/i2c1_master.c: 298: static void I2C1_SetCallback(i2c1_callbackIndex
      +                          _t idx, i2c1_callback_t cb, void *ptr);mcc_generated_files/i2c1_master.c: 299: {;mcc_gen
      +                          erated_files/i2c1_master.c: 300:     if(cb)
  4534   0014A6  5030               	movf	I2C1_SetCallback@cb^0,w,c
  4535   0014A8  1031               	iorwf	(I2C1_SetCallback@cb+1)^0,w,c
  4536   0014AA  1032               	iorwf	(I2C1_SetCallback@cb+2)^0,w,c
  4537   0014AC  B4D8               	btfsc	status,2,c
  4538   0014AE  EF5B  F00A         	goto	u471
  4539   0014B2  EF5D  F00A         	goto	u470
  4540   0014B6                     u471:
  4541   0014B6  EF79  F00A         	goto	l2171
  4542   0014BA                     u470:
  4543   0014BA                     
  4544                           ;mcc_generated_files/i2c1_master.c: 301:     {;mcc_generated_files/i2c1_master.c: 302:  
      +                                 I2C1_Status.callbackTable[idx] = cb;
  4545   0014BA  5035               	movf	I2C1_SetCallback@idx^0,w,c
  4546   0014BC  0D03               	mullw	3
  4547   0014BE  0E01               	movlw	low _I2C1_Status
  4548   0014C0  24F3               	addwf	243,w,c
  4549   0014C2  6ED9               	movwf	fsr2l,c
  4550   0014C4  0E00               	movlw	high _I2C1_Status
  4551   0014C6  20F4               	addwfc	prodh,w,c
  4552   0014C8  6EDA               	movwf	fsr2h,c
  4553   0014CA  C030  FFDE         	movff	I2C1_SetCallback@cb,postinc2
  4554   0014CE  C031  FFDE         	movff	I2C1_SetCallback@cb+1,postinc2
  4555   0014D2  C032  FFDE         	movff	I2C1_SetCallback@cb+2,postinc2
  4556                           
  4557                           ;mcc_generated_files/i2c1_master.c: 303:         I2C1_Status.callbackPayload[idx] = ptr;
  4558   0014D6  5035               	movf	I2C1_SetCallback@idx^0,w,c
  4559   0014D8  0D02               	mullw	2
  4560   0014DA  0E13               	movlw	low (_I2C1_Status+18)
  4561   0014DC  24F3               	addwf	243,w,c
  4562   0014DE  6ED9               	movwf	fsr2l,c
  4563   0014E0  0E00               	movlw	high (_I2C1_Status+18)
  4564   0014E2  20F4               	addwfc	prodh,w,c
  4565   0014E4  6EDA               	movwf	fsr2h,c
  4566   0014E6  C033  FFDE         	movff	I2C1_SetCallback@ptr,postinc2
  4567   0014EA  C034  FFDD         	movff	I2C1_SetCallback@ptr+1,postdec2
  4568                           
  4569                           ;mcc_generated_files/i2c1_master.c: 304:     }
  4570   0014EE  EF93  F00A         	goto	l350
  4571   0014F2                     l2171:
  4572                           
  4573                           ;mcc_generated_files/i2c1_master.c: 306:     {;mcc_generated_files/i2c1_master.c: 307:  
      +                                 I2C1_Status.callbackTable[idx] = I2C1_CallbackReturnStop;
  4574   0014F2  5035               	movf	I2C1_SetCallback@idx^0,w,c
  4575   0014F4  0D03               	mullw	3
  4576   0014F6  0E01               	movlw	low _I2C1_Status
  4577   0014F8  24F3               	addwf	243,w,c
  4578   0014FA  6ED9               	movwf	fsr2l,c
  4579   0014FC  0E00               	movlw	high _I2C1_Status
  4580   0014FE  20F4               	addwfc	prodh,w,c
  4581   001500  6EDA               	movwf	fsr2h,c
  4582   001502  0EC2               	movlw	low _I2C1_CallbackReturnStop
  4583   001504  6EDE               	movwf	postinc2,c
  4584   001506  0E1B               	movlw	high _I2C1_CallbackReturnStop
  4585   001508  6EDE               	movwf	postinc2,c
  4586   00150A  0E00               	movlw	low (_I2C1_CallbackReturnStop shr (0+16))
  4587   00150C  6EDE               	movwf	postinc2,c
  4588                           
  4589                           ;mcc_generated_files/i2c1_master.c: 308:         I2C1_Status.callbackPayload[idx] = ((vo
      +                          id*)0);
  4590   00150E  5035               	movf	I2C1_SetCallback@idx^0,w,c
  4591   001510  0D02               	mullw	2
  4592   001512  0E13               	movlw	low (_I2C1_Status+18)
  4593   001514  24F3               	addwf	243,w,c
  4594   001516  6ED9               	movwf	fsr2l,c
  4595   001518  0E00               	movlw	high (_I2C1_Status+18)
  4596   00151A  20F4               	addwfc	prodh,w,c
  4597   00151C  6EDA               	movwf	fsr2h,c
  4598   00151E  0E00               	movlw	0
  4599   001520  6EDE               	movwf	postinc2,c
  4600   001522  0E00               	movlw	0
  4601   001524  6EDD               	movwf	postdec2,c
  4602   001526                     l350:
  4603   001526  0012               	return		;funcret
  4604   001528                     __end_of_I2C1_SetCallback:
  4605                           	callstack 0
  4606                           
  4607 ;; *************** function _I2C1_SetBuffer *****************
  4608 ;; Defined at:
  4609 ;;		line 263 in file "mcc_generated_files/i2c1_master.c"
  4610 ;; Parameters:    Size  Location     Type
  4611 ;;  buffer          2    0[COMRAM] PTR void 
  4612 ;;		 -> MAX30100_read_led_data@tmp_reg(4), I2C1_ReadDataBlock@reg(1), I2C1_ReadDataBlock@bufferBlock(4), I2C1_Write2Byte
      +Register@reg(1), 
  4613 ;;		 -> I2C1_Write2ByteRegister@data(2), I2C1_Write1ByteRegister@reg(1), I2C1_Write1ByteRegister@data(1), I2C1_Read2Byte
      +Register@reg(1), 
  4614 ;;		 -> I2C1_Read2ByteRegister@returnValue(2), NULL(0), I2C1_Read1ByteRegister@reg(1), I2C1_Read1ByteRegister@returnValu
      +e(1), 
  4615 ;;  bufferSize      2    2[COMRAM] unsigned int 
  4616 ;; Auto vars:     Size  Location     Type
  4617 ;;		None
  4618 ;; Return value:  Size  Location     Type
  4619 ;;                  1    wreg      void 
  4620 ;; Registers used:
  4621 ;;		wreg, status,2, status,0
  4622 ;; Tracked objects:
  4623 ;;		On entry : 0/0
  4624 ;;		On exit  : 0/0
  4625 ;;		Unchanged: 0/0
  4626 ;; Data sizes:     COMRAM   BANK0   BANK1   BANK2   BANK3   BANK4   BANK5   BANK6   BANK7   BANK8   BANK9  BANK10  BANK1
      +1  BANK12  BANK13  BANK14  BANK15
  4627 ;;      Params:         4       0       0       0       0       0       0       0       0       0       0       0       
      +0       0       0       0       0
  4628 ;;      Locals:         0       0       0       0       0       0       0       0       0       0       0       0       
      +0       0       0       0       0
  4629 ;;      Temps:          0       0       0       0       0       0       0       0       0       0       0       0       
      +0       0       0       0       0
  4630 ;;      Totals:         4       0       0       0       0       0       0       0       0       0       0       0       
      +0       0       0       0       0
  4631 ;;Total ram usage:        4 bytes
  4632 ;; Hardware stack levels used: 1
  4633 ;; This function calls:
  4634 ;;		Nothing
  4635 ;; This function is called by:
  4636 ;;		_I2C1_Write1ByteRegister
  4637 ;;		_I2C1_ReadDataBlock
  4638 ;;		_rd1RegCompleteHandler
  4639 ;;		_rd2RegCompleteHandler
  4640 ;;		_wr1RegCompleteHandler
  4641 ;;		_wr2RegCompleteHandler
  4642 ;;		_rdBlkRegCompleteHandler
  4643 ;;		_I2C1_Read1ByteRegister
  4644 ;;		_I2C1_Read2ByteRegister
  4645 ;;		_I2C1_Write2ByteRegister
  4646 ;;		_I2C1_WriteNBytes
  4647 ;;		_I2C1_ReadNBytes
  4648 ;; This function uses a non-reentrant model
  4649 ;;
  4650                           
  4651                           	psect	text55
  4652   001A10                     __ptext55:
  4653                           	callstack 0
  4654   001A10                     _I2C1_SetBuffer:
  4655                           	callstack 28
  4656   001A10                     
  4657                           ;mcc_generated_files/i2c1_master.c: 263: void I2C1_SetBuffer(void *buffer, size_t buffer
      +                          Size);mcc_generated_files/i2c1_master.c: 264: {;mcc_generated_files/i2c1_master.c: 265: 
      +                              if(I2C1_Status.bufferFree)
  4658   001A10  A62A               	btfss	(_I2C1_Status+41)^0,3,c
  4659   001A12  EF0D  F00D         	goto	u481
  4660   001A16  EF0F  F00D         	goto	u480
  4661   001A1A                     u481:
  4662   001A1A  EF18  F00D         	goto	l330
  4663   001A1E                     u480:
  4664   001A1E                     
  4665                           ;mcc_generated_files/i2c1_master.c: 266:     {;mcc_generated_files/i2c1_master.c: 267:  
      +                                 I2C1_Status.data_ptr = buffer;
  4666   001A1E  C030  F024         	movff	I2C1_SetBuffer@buffer,_I2C1_Status+35
  4667   001A22  C031  F025         	movff	I2C1_SetBuffer@buffer+1,_I2C1_Status+36
  4668   001A26                     
  4669                           ;mcc_generated_files/i2c1_master.c: 268:         I2C1_Status.data_length = bufferSize;
  4670   001A26  C032  F026         	movff	I2C1_SetBuffer@bufferSize,_I2C1_Status+37
  4671   001A2A  C033  F027         	movff	I2C1_SetBuffer@bufferSize+1,_I2C1_Status+38
  4672   001A2E                     
  4673                           ;mcc_generated_files/i2c1_master.c: 269:         I2C1_Status.bufferFree = 0;
  4674   001A2E  962A               	bcf	(_I2C1_Status+41)^0,3,c
  4675   001A30                     l330:
  4676   001A30  0012               	return		;funcret
  4677   001A32                     __end_of_I2C1_SetBuffer:
  4678                           	callstack 0
  4679                           
  4680 ;; *************** function _I2C1_MasterStop *****************
  4681 ;; Defined at:
  4682 ;;		line 593 in file "mcc_generated_files/i2c1_master.c"
  4683 ;; Parameters:    Size  Location     Type
  4684 ;;		None
  4685 ;; Auto vars:     Size  Location     Type
  4686 ;;		None
  4687 ;; Return value:  Size  Location     Type
  4688 ;;                  1    wreg      void 
  4689 ;; Registers used:
  4690 ;;		None
  4691 ;; Tracked objects:
  4692 ;;		On entry : 0/0
  4693 ;;		On exit  : 0/0
  4694 ;;		Unchanged: 0/0
  4695 ;; Data sizes:     COMRAM   BANK0   BANK1   BANK2   BANK3   BANK4   BANK5   BANK6   BANK7   BANK8   BANK9  BANK10  BANK1
      +1  BANK12  BANK13  BANK14  BANK15
  4696 ;;      Params:         0       0       0       0       0       0       0       0       0       0       0       0       
      +0       0       0       0       0
  4697 ;;      Locals:         0       0       0       0       0       0       0       0       0       0       0       0       
      +0       0       0       0       0
  4698 ;;      Temps:          0       0       0       0       0       0       0       0       0       0       0       0       
      +0       0       0       0       0
  4699 ;;      Totals:         0       0       0       0       0       0       0       0       0       0       0       0       
      +0       0       0       0       0
  4700 ;;Total ram usage:        0 bytes
  4701 ;; Hardware stack levels used: 1
  4702 ;; This function calls:
  4703 ;;		Nothing
  4704 ;; This function is called by:
  4705 ;;		_I2C1_DO_SEND_STOP
  4706 ;; This function uses a non-reentrant model
  4707 ;;
  4708                           
  4709                           	psect	text56
  4710   001BC6                     __ptext56:
  4711                           	callstack 0
  4712   001BC6                     _I2C1_MasterStop:
  4713                           	callstack 22
  4714   001BC6                     
  4715                           ;mcc_generated_files/i2c1_master.c: 595:     SSP1CON2bits.PEN = 1;
  4716   001BC6  84C5               	bsf	197,2,c	;volatile
  4717   001BC8  0012               	return		;funcret
  4718   001BCA                     __end_of_I2C1_MasterStop:
  4719                           	callstack 0
  4720                           
  4721 ;; *************** function _I2C1_MasterEnableRestart *****************
  4722 ;; Defined at:
  4723 ;;		line 573 in file "mcc_generated_files/i2c1_master.c"
  4724 ;; Parameters:    Size  Location     Type
  4725 ;;		None
  4726 ;; Auto vars:     Size  Location     Type
  4727 ;;		None
  4728 ;; Return value:  Size  Location     Type
  4729 ;;                  1    wreg      void 
  4730 ;; Registers used:
  4731 ;;		None
  4732 ;; Tracked objects:
  4733 ;;		On entry : 0/0
  4734 ;;		On exit  : 0/0
  4735 ;;		Unchanged: 0/0
  4736 ;; Data sizes:     COMRAM   BANK0   BANK1   BANK2   BANK3   BANK4   BANK5   BANK6   BANK7   BANK8   BANK9  BANK10  BANK1
      +1  BANK12  BANK13  BANK14  BANK15
  4737 ;;      Params:         0       0       0       0       0       0       0       0       0       0       0       0       
      +0       0       0       0       0
  4738 ;;      Locals:         0       0       0       0       0       0       0       0       0       0       0       0       
      +0       0       0       0       0
  4739 ;;      Temps:          0       0       0       0       0       0       0       0       0       0       0       0       
      +0       0       0       0       0
  4740 ;;      Totals:         0       0       0       0       0       0       0       0       0       0       0       0       
      +0       0       0       0       0
  4741 ;;Total ram usage:        0 bytes
  4742 ;; Hardware stack levels used: 1
  4743 ;; This function calls:
  4744 ;;		Nothing
  4745 ;; This function is called by:
  4746 ;;		_I2C1_DO_SEND_RESTART_READ
  4747 ;;		_I2C1_DO_SEND_RESTART_WRITE
  4748 ;;		_I2C1_DO_SEND_RESTART
  4749 ;;		_I2C1_DO_RX_EMPTY
  4750 ;; This function uses a non-reentrant model
  4751 ;;
  4752                           
  4753                           	psect	text57
  4754   001BCA                     __ptext57:
  4755                           	callstack 0
  4756   001BCA                     _I2C1_MasterEnableRestart:
  4757                           	callstack 22
  4758   001BCA                     
  4759                           ;mcc_generated_files/i2c1_master.c: 575:     SSP1CON2bits.RSEN = 1;
  4760   001BCA  82C5               	bsf	197,1,c	;volatile
  4761   001BCC  0012               	return		;funcret
  4762   001BCE                     __end_of_I2C1_MasterEnableRestart:
  4763                           	callstack 0
  4764                           
  4765 ;; *************** function _I2C1_MasterStart *****************
  4766 ;; Defined at:
  4767 ;;		line 588 in file "mcc_generated_files/i2c1_master.c"
  4768 ;; Parameters:    Size  Location     Type
  4769 ;;		None
  4770 ;; Auto vars:     Size  Location     Type
  4771 ;;		None
  4772 ;; Return value:  Size  Location     Type
  4773 ;;                  1    wreg      void 
  4774 ;; Registers used:
  4775 ;;		None
  4776 ;; Tracked objects:
  4777 ;;		On entry : 0/0
  4778 ;;		On exit  : 0/0
  4779 ;;		Unchanged: 0/0
  4780 ;; Data sizes:     COMRAM   BANK0   BANK1   BANK2   BANK3   BANK4   BANK5   BANK6   BANK7   BANK8   BANK9  BANK10  BANK1
      +1  BANK12  BANK13  BANK14  BANK15
  4781 ;;      Params:         0       0       0       0       0       0       0       0       0       0       0       0       
      +0       0       0       0       0
  4782 ;;      Locals:         0       0       0       0       0       0       0       0       0       0       0       0       
      +0       0       0       0       0
  4783 ;;      Temps:          0       0       0       0       0       0       0       0       0       0       0       0       
      +0       0       0       0       0
  4784 ;;      Totals:         0       0       0       0       0       0       0       0       0       0       0       0       
      +0       0       0       0       0
  4785 ;;Total ram usage:        0 bytes
  4786 ;; Hardware stack levels used: 1
  4787 ;; This function calls:
  4788 ;;		Nothing
  4789 ;; This function is called by:
  4790 ;;		_I2C1_MasterOperation
  4791 ;; This function uses a non-reentrant model
  4792 ;;
  4793                           
  4794                           	psect	text58
  4795   001BCE                     __ptext58:
  4796                           	callstack 0
  4797   001BCE                     _I2C1_MasterStart:
  4798                           	callstack 26
  4799   001BCE                     
  4800                           ;mcc_generated_files/i2c1_master.c: 590:     SSP1CON2bits.SEN = 1;
  4801   001BCE  80C5               	bsf	197,0,c	;volatile
  4802   001BD0  0012               	return		;funcret
  4803   001BD2                     __end_of_I2C1_MasterStart:
  4804                           	callstack 0
  4805                           
  4806 ;; *************** function _I2C1_Close *****************
  4807 ;; Defined at:
  4808 ;;		line 209 in file "mcc_generated_files/i2c1_master.c"
  4809 ;; Parameters:    Size  Location     Type
  4810 ;;		None
  4811 ;; Auto vars:     Size  Location     Type
  4812 ;;  returnValue     1    0[COMRAM] enum E355
  4813 ;; Return value:  Size  Location     Type
  4814 ;;                  1    wreg      enum E355
  4815 ;; Registers used:
  4816 ;;		wreg, status,2, cstack
  4817 ;; Tracked objects:
  4818 ;;		On entry : 0/0
  4819 ;;		On exit  : 0/0
  4820 ;;		Unchanged: 0/0
  4821 ;; Data sizes:     COMRAM   BANK0   BANK1   BANK2   BANK3   BANK4   BANK5   BANK6   BANK7   BANK8   BANK9  BANK10  BANK1
      +1  BANK12  BANK13  BANK14  BANK15
  4822 ;;      Params:         0       0       0       0       0       0       0       0       0       0       0       0       
      +0       0       0       0       0
  4823 ;;      Locals:         1       0       0       0       0       0       0       0       0       0       0       0       
      +0       0       0       0       0
  4824 ;;      Temps:          0       0       0       0       0       0       0       0       0       0       0       0       
      +0       0       0       0       0
  4825 ;;      Totals:         1       0       0       0       0       0       0       0       0       0       0       0       
      +0       0       0       0       0
  4826 ;;Total ram usage:        1 bytes
  4827 ;; Hardware stack levels used: 1
  4828 ;; Hardware stack levels required when called: 1
  4829 ;; This function calls:
  4830 ;;		_I2C1_MasterClearIrq
  4831 ;;		_I2C1_MasterClose
  4832 ;;		_I2C1_MasterDisableIrq
  4833 ;; This function is called by:
  4834 ;;		_I2C1_Write1ByteRegister
  4835 ;;		_I2C1_ReadDataBlock
  4836 ;;		_I2C1_Read1ByteRegister
  4837 ;;		_I2C1_Read2ByteRegister
  4838 ;;		_I2C1_Write2ByteRegister
  4839 ;;		_I2C1_WriteNBytes
  4840 ;;		_I2C1_ReadNBytes
  4841 ;; This function uses a non-reentrant model
  4842 ;;
  4843                           
  4844                           	psect	text59
  4845   0019C4                     __ptext59:
  4846                           	callstack 0
  4847   0019C4                     _I2C1_Close:
  4848                           	callstack 27
  4849   0019C4                     
  4850                           ;mcc_generated_files/i2c1_master.c: 211:     i2c1_error_t returnValue = I2C1_BUSY;
  4851   0019C4  0E01               	movlw	1
  4852   0019C6  6E30               	movwf	I2C1_Close@returnValue^0,c
  4853   0019C8                     
  4854                           ;mcc_generated_files/i2c1_master.c: 212:     if(!I2C1_Status.busy)
  4855   0019C8  B22A               	btfsc	(_I2C1_Status+41)^0,1,c
  4856   0019CA  EFE9  F00C         	goto	u661
  4857   0019CE  EFEB  F00C         	goto	u660
  4858   0019D2                     u661:
  4859   0019D2  EFF5  F00C         	goto	l2565
  4860   0019D6                     u660:
  4861   0019D6                     
  4862                           ;mcc_generated_files/i2c1_master.c: 213:     {;mcc_generated_files/i2c1_master.c: 214:  
      +                                 I2C1_Status.inUse = 0;
  4863   0019D6  942A               	bcf	(_I2C1_Status+41)^0,2,c
  4864                           
  4865                           ;mcc_generated_files/i2c1_master.c: 215:         I2C1_Status.address = 0xff;
  4866   0019D8  6823               	setf	(_I2C1_Status+34)^0,c
  4867   0019DA                     
  4868                           ;mcc_generated_files/i2c1_master.c: 216:         I2C1_MasterClearIrq();
  4869   0019DA  ECED  F00D         	call	_I2C1_MasterClearIrq	;wreg free
  4870                           
  4871                           ;mcc_generated_files/i2c1_master.c: 217:         I2C1_MasterDisableIrq();
  4872   0019DE  ECE9  F00D         	call	_I2C1_MasterDisableIrq	;wreg free
  4873                           
  4874                           ;mcc_generated_files/i2c1_master.c: 218:         I2C1_MasterClose();
  4875   0019E2  ECEB  F00D         	call	_I2C1_MasterClose	;wreg free
  4876   0019E6                     
  4877                           ;mcc_generated_files/i2c1_master.c: 219:         returnValue = I2C1_Status.error;
  4878   0019E6  C029  F030         	movff	_I2C1_Status+40,I2C1_Close@returnValue
  4879   0019EA                     l2565:
  4880                           
  4881                           ;mcc_generated_files/i2c1_master.c: 221:     return returnValue;
  4882   0019EA  5030               	movf	I2C1_Close@returnValue^0,w,c
  4883   0019EC  0012               	return		;funcret
  4884   0019EE                     __end_of_I2C1_Close:
  4885                           	callstack 0
  4886                           
  4887 ;; *************** function _I2C1_MasterDisableIrq *****************
  4888 ;; Defined at:
  4889 ;;		line 635 in file "mcc_generated_files/i2c1_master.c"
  4890 ;; Parameters:    Size  Location     Type
  4891 ;;		None
  4892 ;; Auto vars:     Size  Location     Type
  4893 ;;		None
  4894 ;; Return value:  Size  Location     Type
  4895 ;;                  1    wreg      void 
  4896 ;; Registers used:
  4897 ;;		None
  4898 ;; Tracked objects:
  4899 ;;		On entry : 0/0
  4900 ;;		On exit  : 0/0
  4901 ;;		Unchanged: 0/0
  4902 ;; Data sizes:     COMRAM   BANK0   BANK1   BANK2   BANK3   BANK4   BANK5   BANK6   BANK7   BANK8   BANK9  BANK10  BANK1
      +1  BANK12  BANK13  BANK14  BANK15
  4903 ;;      Params:         0       0       0       0       0       0       0       0       0       0       0       0       
      +0       0       0       0       0
  4904 ;;      Locals:         0       0       0       0       0       0       0       0       0       0       0       0       
      +0       0       0       0       0
  4905 ;;      Temps:          0       0       0       0       0       0       0       0       0       0       0       0       
      +0       0       0       0       0
  4906 ;;      Totals:         0       0       0       0       0       0       0       0       0       0       0       0       
      +0       0       0       0       0
  4907 ;;Total ram usage:        0 bytes
  4908 ;; Hardware stack levels used: 1
  4909 ;; This function calls:
  4910 ;;		Nothing
  4911 ;; This function is called by:
  4912 ;;		_I2C1_Close
  4913 ;;		_I2C1_SetTimeOut
  4914 ;; This function uses a non-reentrant model
  4915 ;;
  4916                           
  4917                           	psect	text60
  4918   001BD2                     __ptext60:
  4919                           	callstack 0
  4920   001BD2                     _I2C1_MasterDisableIrq:
  4921                           	callstack 27
  4922   001BD2                     
  4923                           ;mcc_generated_files/i2c1_master.c: 637:     PIE1bits.SSP1IE = 0;
  4924   001BD2  969D               	bcf	157,3,c	;volatile
  4925   001BD4  0012               	return		;funcret
  4926   001BD6                     __end_of_I2C1_MasterDisableIrq:
  4927                           	callstack 0
  4928                           
  4929 ;; *************** function _I2C1_MasterClose *****************
  4930 ;; Defined at:
  4931 ;;		line 557 in file "mcc_generated_files/i2c1_master.c"
  4932 ;; Parameters:    Size  Location     Type
  4933 ;;		None
  4934 ;; Auto vars:     Size  Location     Type
  4935 ;;		None
  4936 ;; Return value:  Size  Location     Type
  4937 ;;                  1    wreg      void 
  4938 ;; Registers used:
  4939 ;;		None
  4940 ;; Tracked objects:
  4941 ;;		On entry : 0/0
  4942 ;;		On exit  : 0/0
  4943 ;;		Unchanged: 0/0
  4944 ;; Data sizes:     COMRAM   BANK0   BANK1   BANK2   BANK3   BANK4   BANK5   BANK6   BANK7   BANK8   BANK9  BANK10  BANK1
      +1  BANK12  BANK13  BANK14  BANK15
  4945 ;;      Params:         0       0       0       0       0       0       0       0       0       0       0       0       
      +0       0       0       0       0
  4946 ;;      Locals:         0       0       0       0       0       0       0       0       0       0       0       0       
      +0       0       0       0       0
  4947 ;;      Temps:          0       0       0       0       0       0       0       0       0       0       0       0       
      +0       0       0       0       0
  4948 ;;      Totals:         0       0       0       0       0       0       0       0       0       0       0       0       
      +0       0       0       0       0
  4949 ;;Total ram usage:        0 bytes
  4950 ;; Hardware stack levels used: 1
  4951 ;; This function calls:
  4952 ;;		Nothing
  4953 ;; This function is called by:
  4954 ;;		_I2C1_Close
  4955 ;; This function uses a non-reentrant model
  4956 ;;
  4957                           
  4958                           	psect	text61
  4959   001BD6                     __ptext61:
  4960                           	callstack 0
  4961   001BD6                     _I2C1_MasterClose:
  4962                           	callstack 27
  4963   001BD6                     
  4964                           ;mcc_generated_files/i2c1_master.c: 560:     SSP1CON1bits.SSPEN = 0;
  4965   001BD6  9AC6               	bcf	198,5,c	;volatile
  4966   001BD8  0012               	return		;funcret
  4967   001BDA                     __end_of_I2C1_MasterClose:
  4968                           	callstack 0
  4969                           
  4970 ;; *************** function _I2C1_MasterClearIrq *****************
  4971 ;; Defined at:
  4972 ;;		line 640 in file "mcc_generated_files/i2c1_master.c"
  4973 ;; Parameters:    Size  Location     Type
  4974 ;;		None
  4975 ;; Auto vars:     Size  Location     Type
  4976 ;;		None
  4977 ;; Return value:  Size  Location     Type
  4978 ;;                  1    wreg      void 
  4979 ;; Registers used:
  4980 ;;		None
  4981 ;; Tracked objects:
  4982 ;;		On entry : 0/0
  4983 ;;		On exit  : 0/0
  4984 ;;		Unchanged: 0/0
  4985 ;; Data sizes:     COMRAM   BANK0   BANK1   BANK2   BANK3   BANK4   BANK5   BANK6   BANK7   BANK8   BANK9  BANK10  BANK1
      +1  BANK12  BANK13  BANK14  BANK15
  4986 ;;      Params:         0       0       0       0       0       0       0       0       0       0       0       0       
      +0       0       0       0       0
  4987 ;;      Locals:         0       0       0       0       0       0       0       0       0       0       0       0       
      +0       0       0       0       0
  4988 ;;      Temps:          0       0       0       0       0       0       0       0       0       0       0       0       
      +0       0       0       0       0
  4989 ;;      Totals:         0       0       0       0       0       0       0       0       0       0       0       0       
      +0       0       0       0       0
  4990 ;;Total ram usage:        0 bytes
  4991 ;; Hardware stack levels used: 1
  4992 ;; This function calls:
  4993 ;;		Nothing
  4994 ;; This function is called by:
  4995 ;;		_I2C1_Open
  4996 ;;		_I2C1_Close
  4997 ;;		_I2C1_MasterFsm
  4998 ;; This function uses a non-reentrant model
  4999 ;;
  5000                           
  5001                           	psect	text62
  5002   001BDA                     __ptext62:
  5003                           	callstack 0
  5004   001BDA                     _I2C1_MasterClearIrq:
  5005                           	callstack 27
  5006   001BDA                     
  5007                           ;mcc_generated_files/i2c1_master.c: 642:     PIR1bits.SSP1IF = 0;
  5008   001BDA  969E               	bcf	158,3,c	;volatile
  5009   001BDC  0012               	return		;funcret
  5010   001BDE                     __end_of_I2C1_MasterClearIrq:
  5011                           	callstack 0
  5012                           
  5013 ;; *************** function _EUSART1_Write *****************
  5014 ;; Defined at:
  5015 ;;		line 132 in file "mcc_generated_files/eusart1.c"
  5016 ;; Parameters:    Size  Location     Type
  5017 ;;  txData          1    wreg     unsigned char 
  5018 ;; Auto vars:     Size  Location     Type
  5019 ;;  txData          1    0[COMRAM] unsigned char 
  5020 ;; Return value:  Size  Location     Type
  5021 ;;                  1    wreg      void 
  5022 ;; Registers used:
  5023 ;;		wreg
  5024 ;; Tracked objects:
  5025 ;;		On entry : 0/0
  5026 ;;		On exit  : 0/0
  5027 ;;		Unchanged: 0/0
  5028 ;; Data sizes:     COMRAM   BANK0   BANK1   BANK2   BANK3   BANK4   BANK5   BANK6   BANK7   BANK8   BANK9  BANK10  BANK1
      +1  BANK12  BANK13  BANK14  BANK15
  5029 ;;      Params:         0       0       0       0       0       0       0       0       0       0       0       0       
      +0       0       0       0       0
  5030 ;;      Locals:         1       0       0       0       0       0       0       0       0       0       0       0       
      +0       0       0       0       0
  5031 ;;      Temps:          0       0       0       0       0       0       0       0       0       0       0       0       
      +0       0       0       0       0
  5032 ;;      Totals:         1       0       0       0       0       0       0       0       0       0       0       0       
      +0       0       0       0       0
  5033 ;;Total ram usage:        1 bytes
  5034 ;; Hardware stack levels used: 1
  5035 ;; This function calls:
  5036 ;;		Nothing
  5037 ;; This function is called by:
  5038 ;;		_main
  5039 ;;		_putch
  5040 ;; This function uses a non-reentrant model
  5041 ;;
  5042                           
  5043                           	psect	text63
  5044   001A86                     __ptext63:
  5045                           	callstack 0
  5046   001A86                     _EUSART1_Write:
  5047                           	callstack 30
  5048                           
  5049                           ;incstack = 0
  5050                           ;EUSART1_Write@txData stored from wreg
  5051   001A86  6E30               	movwf	EUSART1_Write@txData^0,c
  5052   001A88                     l169:
  5053                           
  5054                           ;mcc_generated_files/eusart1.c: 134:     while(0 == PIR1bits.TX1IF)
  5055   001A88  A89E               	btfss	158,4,c	;volatile
  5056   001A8A  EF49  F00D         	goto	u731
  5057   001A8E  EF4B  F00D         	goto	u730
  5058   001A92                     u731:
  5059   001A92  EF44  F00D         	goto	l169
  5060   001A96                     u730:
  5061   001A96                     
  5062                           ;mcc_generated_files/eusart1.c: 138:     TXREG1 = txData;
  5063   001A96  C030  FFAD         	movff	EUSART1_Write@txData,4013	;volatile
  5064   001A9A  0012               	return		;funcret
  5065   001A9C                     __end_of_EUSART1_Write:
  5066                           	callstack 0
  5067                           
  5068                           	psect	text64
  5069   000000                     __ptext64:
  5070                           	callstack 0
  5071   000000                     
  5072                           	psect	rparam
  5073   000000                     
  5074                           	psect	idloc
  5075                           
  5076                           ;Config register IDLOC0 @ 0x200000
  5077                           ;	unspecified, using default values
  5078   200000                     	org	2097152
  5079   200000  FF                 	db	255
  5080                           
  5081                           ;Config register IDLOC1 @ 0x200001
  5082                           ;	unspecified, using default values
  5083   200001                     	org	2097153
  5084   200001  FF                 	db	255
  5085                           
  5086                           ;Config register IDLOC2 @ 0x200002
  5087                           ;	unspecified, using default values
  5088   200002                     	org	2097154
  5089   200002  FF                 	db	255
  5090                           
  5091                           ;Config register IDLOC3 @ 0x200003
  5092                           ;	unspecified, using default values
  5093   200003                     	org	2097155
  5094   200003  FF                 	db	255
  5095                           
  5096                           ;Config register IDLOC4 @ 0x200004
  5097                           ;	unspecified, using default values
  5098   200004                     	org	2097156
  5099   200004  FF                 	db	255
  5100                           
  5101                           ;Config register IDLOC5 @ 0x200005
  5102                           ;	unspecified, using default values
  5103   200005                     	org	2097157
  5104   200005  FF                 	db	255
  5105                           
  5106                           ;Config register IDLOC6 @ 0x200006
  5107                           ;	unspecified, using default values
  5108   200006                     	org	2097158
  5109   200006  FF                 	db	255
  5110                           
  5111                           ;Config register IDLOC7 @ 0x200007
  5112                           ;	unspecified, using default values
  5113   200007                     	org	2097159
  5114   200007  FF                 	db	255
  5115                           
  5116                           	psect	config
  5117                           
  5118                           ;Config register CONFIG1L @ 0x300000
  5119                           ;	VREG Sleep Enable bit
  5120                           ;	RETEN = ON, Enabled
  5121                           ;	LF-INTOSC Low-power Enable bit
  5122                           ;	INTOSCSEL = HIGH, LF-INTOSC in High-power mode during Sleep
  5123                           ;	SOSC Power Selection and mode Configuration bits
  5124                           ;	SOSCSEL = DIG, Digital (SCLKI) mode
  5125                           ;	Extended Instruction Set
  5126                           ;	XINST = OFF, Disabled
  5127   300000                     	org	3145728
  5128   300000  15                 	db	21
  5129                           
  5130                           ;Config register CONFIG1H @ 0x300001
  5131                           ;	Oscillator
  5132                           ;	FOSC = HS1, HS oscillator (Medium power, 4 MHz - 16 MHz)
  5133                           ;	PLL x4 Enable bit
  5134                           ;	PLLCFG = ON, Enabled
  5135                           ;	Fail-Safe Clock Monitor
  5136                           ;	FCMEN = OFF, Disabled
  5137                           ;	Internal External Oscillator Switch Over Mode
  5138                           ;	IESO = OFF, Disabled
  5139   300001                     	org	3145729
  5140   300001  13                 	db	19
  5141                           
  5142                           ;Config register CONFIG2L @ 0x300002
  5143                           ;	Power Up Timer
  5144                           ;	PWRTEN = OFF, Disabled
  5145                           ;	Brown Out Detect
  5146                           ;	BOREN = SBORDIS, Enabled in hardware, SBOREN disabled
  5147                           ;	Brown-out Reset Voltage bits
  5148                           ;	BORV = 3, 1.8V
  5149                           ;	BORMV Power level
  5150                           ;	BORPWR = ZPBORMV, ZPBORMV instead of BORMV is selected
  5151   300002                     	org	3145730
  5152   300002  7F                 	db	127
  5153                           
  5154                           ;Config register CONFIG2H @ 0x300003
  5155                           ;	Watchdog Timer
  5156                           ;	WDTEN = OFF, WDT disabled in hardware; SWDTEN bit disabled
  5157                           ;	Watchdog Postscaler
  5158                           ;	WDTPS = 1048576, 1:1048576
  5159   300003                     	org	3145731
  5160   300003  7C                 	db	124
  5161                           
  5162                           ;Config register CONFIG3L @ 0x300004
  5163                           ;	RTCC Clock Select
  5164                           ;	RTCOSC = SOSCREF, RTCC uses SOSC
  5165                           ;	External Address Shift bit
  5166                           ;	EASHFT = ON, Address Shifting enabled
  5167                           ;	Address Bus Width Select bits
  5168                           ;	ABW = MM, 8-bit address bus
  5169                           ;	Data Bus Width
  5170                           ;	BW = 16, 16-bit external bus mode
  5171                           ;	External Bus Wait
  5172                           ;	WAIT = OFF, Disabled
  5173   300004                     	org	3145732
  5174   300004  F9                 	db	249
  5175                           
  5176                           ;Config register CONFIG3H @ 0x300005
  5177                           ;	CCP2 Mux
  5178                           ;	CCP2MX = PORTC, RC1
  5179                           ;	ECCP Mux
  5180                           ;	ECCPMX = PORTE, Enhanced CCP1/3 [P1B/P1C/P3B/P3C] muxed with RE6/RE5/RE4/RE3
  5181                           ;	MSSP address masking
  5182                           ;	MSSPMSK = MSK7, 7 Bit address masking mode
  5183                           ;	Master Clear Enable
  5184                           ;	MCLRE = ON, MCLR Enabled, RG5 Disabled
  5185   300005                     	org	3145733
  5186   300005  8B                 	db	139
  5187                           
  5188                           ;Config register CONFIG4L @ 0x300006
  5189                           ;	Stack Overflow Reset
  5190                           ;	STVREN = ON, Enabled
  5191                           ;	Boot Block Size
  5192                           ;	BBSIZ = BB2K, 2K word Boot Block size
  5193                           ;	Background Debug
  5194                           ;	DEBUG = OFF, Disabled
  5195   300006                     	org	3145734
  5196   300006  91                 	db	145
  5197                           
  5198                           ; Padding undefined space
  5199   300007                     	org	3145735
  5200   300007  FF                 	db	255
  5201                           
  5202                           ;Config register CONFIG5L @ 0x300008
  5203                           ;	Code Protect 00800-03FFF
  5204                           ;	CP0 = OFF, Disabled
  5205                           ;	Code Protect 04000-07FFF
  5206                           ;	CP1 = OFF, Disabled
  5207                           ;	Code Protect 08000-0BFFF
  5208                           ;	CP2 = OFF, Disabled
  5209                           ;	Code Protect 0C000-0FFFF
  5210                           ;	CP3 = OFF, Disabled
  5211                           ;	Code Protect 10000-13FFF
  5212                           ;	CP4 = OFF, Disabled
  5213                           ;	Code Protect 14000-17FFF
  5214                           ;	CP5 = OFF, Disabled
  5215                           ;	Code Protect 18000-1BFFF
  5216                           ;	CP6 = OFF, Disabled
  5217                           ;	Code Protect 1C000-1FFFF
  5218                           ;	CP7 = OFF, Disabled
  5219   300008                     	org	3145736
  5220   300008  FF                 	db	255
  5221                           
  5222                           ;Config register CONFIG5H @ 0x300009
  5223                           ;	Code Protect Boot
  5224                           ;	CPB = OFF, Disabled
  5225                           ;	Data EE Read Protect
  5226                           ;	CPD = OFF, Disabled
  5227   300009                     	org	3145737
  5228   300009  C0                 	db	192
  5229                           
  5230                           ;Config register CONFIG6L @ 0x30000A
  5231                           ;	Table Write Protect 00800-03FFF
  5232                           ;	WRT0 = OFF, Disabled
  5233                           ;	Table Write Protect 04000-07FFF
  5234                           ;	WRT1 = OFF, Disabled
  5235                           ;	Table Write Protect 08000-0BFFF
  5236                           ;	WRT2 = OFF, Disabled
  5237                           ;	Table Write Protect 0C000-0FFFF
  5238                           ;	WRT3 = OFF, Disabled
  5239                           ;	Table Write Protect 10000-13FFF
  5240                           ;	WRT4 = OFF, Disabled
  5241                           ;	Table Write Protect 14000-17FFF
  5242                           ;	WRT5 = OFF, Disabled
  5243                           ;	Table Write Protect 18000-1BFFF
  5244                           ;	WRT6 = OFF, Disabled
  5245                           ;	Table Write Protect 1C000-1FFFF
  5246                           ;	WRT7 = OFF, Disabled
  5247   30000A                     	org	3145738
  5248   30000A  FF                 	db	255
  5249                           
  5250                           ;Config register CONFIG6H @ 0x30000B
  5251                           ;	Config. Write Protect
  5252                           ;	WRTC = OFF, Disabled
  5253                           ;	Table Write Protect Boot
  5254                           ;	WRTB = OFF, Disabled
  5255                           ;	Data EE Write Protect
  5256                           ;	WRTD = OFF, Disabled
  5257   30000B                     	org	3145739
  5258   30000B  E0                 	db	224
  5259                           
  5260                           ;Config register CONFIG7L @ 0x30000C
  5261                           ;	Table Read Protect 00800-03FFF
  5262                           ;	EBRT0 = OFF, Disabled
  5263                           ;	Table Read Protect 04000-07FFF
  5264                           ;	EBRT1 = OFF, Disabled
  5265                           ;	Table Read Protect 08000-0BFFF
  5266                           ;	EBRT2 = OFF, Disabled
  5267                           ;	Table Read Protect 0C000-0FFFF
  5268                           ;	EBRT3 = OFF, Disabled
  5269                           ;	Table Read Protect 10000-13FFF
  5270                           ;	EBRT4 = OFF, Disabled
  5271                           ;	Table Read Protect 14000-17FFF
  5272                           ;	EBRT5 = OFF, Disabled
  5273                           ;	Table Read Protect 18000-1BFFF
  5274                           ;	EBRT6 = OFF, Disabled
  5275                           ;	Table Read Protect 1C000-1FFFF
  5276                           ;	EBRT7 = OFF, Disabled
  5277   30000C                     	org	3145740
  5278   30000C  FF                 	db	255
  5279                           
  5280                           ;Config register CONFIG7H @ 0x30000D
  5281                           ;	Table Read Protect Boot
  5282                           ;	EBRTB = OFF, Disabled
  5283   30000D                     	org	3145741
  5284   30000D  40                 	db	64
  5285                           tosu	equ	0xFFF
  5286                           tosh	equ	0xFFE
  5287                           tosl	equ	0xFFD
  5288                           stkptr	equ	0xFFC
  5289                           pclatu	equ	0xFFB
  5290                           pclath	equ	0xFFA
  5291                           pcl	equ	0xFF9
  5292                           tblptru	equ	0xFF8
  5293                           tblptrh	equ	0xFF7
  5294                           tblptrl	equ	0xFF6
  5295                           tablat	equ	0xFF5
  5296                           prodh	equ	0xFF4
  5297                           prodl	equ	0xFF3
  5298                           indf0	equ	0xFEF
  5299                           postinc0	equ	0xFEE
  5300                           postdec0	equ	0xFED
  5301                           preinc0	equ	0xFEC
  5302                           plusw0	equ	0xFEB
  5303                           fsr0h	equ	0xFEA
  5304                           fsr0l	equ	0xFE9
  5305                           wreg	equ	0xFE8
  5306                           indf1	equ	0xFE7
  5307                           postinc1	equ	0xFE6
  5308                           postdec1	equ	0xFE5
  5309                           preinc1	equ	0xFE4
  5310                           plusw1	equ	0xFE3
  5311                           fsr1h	equ	0xFE2
  5312                           fsr1l	equ	0xFE1
  5313                           bsr	equ	0xFE0
  5314                           indf2	equ	0xFDF
  5315                           postinc2	equ	0xFDE
  5316                           postdec2	equ	0xFDD
  5317                           preinc2	equ	0xFDC
  5318                           plusw2	equ	0xFDB
  5319                           fsr2h	equ	0xFDA
  5320                           fsr2l	equ	0xFD9
  5321                           status	equ	0xFD8

Data Sizes:
    Strings     0
    Constant    48
    Data        0
    BSS         311
    Persistent  9
    Stack       0

Auto Spaces:
    Space          Size  Autos    Used
    COMRAM           95     46      93
    BANK0           160    128     145
    BANK1           256    128     256
    BANK2           256      0     128
    BANK3           256      0       0
    BANK4           256      0       0
    BANK5           256      0       0
    BANK6           256      0       0
    BANK7           256      0       0
    BANK8           256      0       0
    BANK9           256      0       0
    BANK10          256      0       0
    BANK11          256      0       0
    BANK12          256      0       0
    BANK13          256      0       0
    BANK14          256      0       0
    BANK15           22      0       0

Pointer List with Targets:

    I2C1_Read1ByteRegister@returnValue.data	PTR unsigned char  size(2) Largest target is 0
		 -> MAX30100_read_led_data@tmp_reg(BANK0[4]), 

    I2C1_Read2ByteRegister@returnValue.data	PTR unsigned char  size(2) Largest target is 0
		 -> MAX30100_read_led_data@tmp_reg(BANK0[4]), 

    I2C1_Write1ByteRegister@data.data	PTR unsigned char  size(2) Largest target is 0
		 -> MAX30100_read_led_data@tmp_reg(BANK0[4]), 

    I2C1_Write2ByteRegister@data.data	PTR unsigned char  size(2) Largest target is 0
		 -> MAX30100_read_led_data@tmp_reg(BANK0[4]), 

    I2C1_DO_TX$2204$0	PTR void  size(2) Largest target is 5
		 -> I2C1_ReadDataBlock@bufferBlock(COMRAM[4]), I2C1_Write2ByteRegister@data(COMRAM[2]), I2C1_Write1ByteRegister@data(COMRAM[1]), I2C1_Read2ByteRegister@returnValue(COMRAM[2]), 
		 -> NULL(NULL[0]), I2C1_Read1ByteRegister@returnValue(COMRAM[1]), 

    I2C1_DO_RX$2210$0	PTR void  size(2) Largest target is 5
		 -> I2C1_ReadDataBlock@bufferBlock(COMRAM[4]), I2C1_Write2ByteRegister@data(COMRAM[2]), I2C1_Write1ByteRegister@data(COMRAM[1]), I2C1_Read2ByteRegister@returnValue(COMRAM[2]), 
		 -> NULL(NULL[0]), I2C1_Read1ByteRegister@returnValue(COMRAM[1]), 

    I2C1_DO_TX_EMPTY$2216$0	PTR void  size(2) Largest target is 5
		 -> I2C1_ReadDataBlock@bufferBlock(COMRAM[4]), I2C1_Write2ByteRegister@data(COMRAM[2]), I2C1_Write1ByteRegister@data(COMRAM[1]), I2C1_Read2ByteRegister@returnValue(COMRAM[2]), 
		 -> NULL(NULL[0]), I2C1_Read1ByteRegister@returnValue(COMRAM[1]), 

    I2C1_DO_RX_EMPTY$2222$0	PTR void  size(2) Largest target is 5
		 -> I2C1_ReadDataBlock@bufferBlock(COMRAM[4]), I2C1_Write2ByteRegister@data(COMRAM[2]), I2C1_Write1ByteRegister@data(COMRAM[1]), I2C1_Read2ByteRegister@returnValue(COMRAM[2]), 
		 -> NULL(NULL[0]), I2C1_Read1ByteRegister@returnValue(COMRAM[1]), 

    I2C1_DO_TX_EMPTY$2221	PTR void  size(2) Largest target is 5
		 -> I2C1_ReadDataBlock@bufferBlock(COMRAM[4]), I2C1_Write2ByteRegister@data(COMRAM[2]), I2C1_Write1ByteRegister@data(COMRAM[1]), I2C1_Read2ByteRegister@returnValue(COMRAM[2]), 
		 -> NULL(NULL[0]), I2C1_Read1ByteRegister@returnValue(COMRAM[1]), 

    I2C1_DO_TX_EMPTY$2216	PTR FTN(PTR void ,)enum E360 size(3) Largest target is 1
		 -> I2C1_CallbackReturnReset(), I2C1_CallbackReturnStop(), Absolute function(), rdBlkRegCompleteHandler(), 
		 -> wr2RegCompleteHandler(), wr1RegCompleteHandler(), rd2RegCompleteHandler(), rd1RegCompleteHandler(), 

    I2C1_DO_RX$2215	PTR void  size(2) Largest target is 5
		 -> I2C1_ReadDataBlock@bufferBlock(COMRAM[4]), I2C1_Write2ByteRegister@data(COMRAM[2]), I2C1_Write1ByteRegister@data(COMRAM[1]), I2C1_Read2ByteRegister@returnValue(COMRAM[2]), 
		 -> NULL(NULL[0]), I2C1_Read1ByteRegister@returnValue(COMRAM[1]), 

    I2C1_DO_RX$2210	PTR FTN(PTR void ,)enum E360 size(3) Largest target is 1
		 -> I2C1_CallbackReturnReset(), I2C1_CallbackReturnStop(), Absolute function(), rdBlkRegCompleteHandler(), 
		 -> wr2RegCompleteHandler(), wr1RegCompleteHandler(), rd2RegCompleteHandler(), rd1RegCompleteHandler(), 

    I2C1_DO_TX$2209	PTR void  size(2) Largest target is 5
		 -> I2C1_ReadDataBlock@bufferBlock(COMRAM[4]), I2C1_Write2ByteRegister@data(COMRAM[2]), I2C1_Write1ByteRegister@data(COMRAM[1]), I2C1_Read2ByteRegister@returnValue(COMRAM[2]), 
		 -> NULL(NULL[0]), I2C1_Read1ByteRegister@returnValue(COMRAM[1]), 

    I2C1_DO_TX$2204	PTR FTN(PTR void ,)enum E360 size(3) Largest target is 1
		 -> I2C1_CallbackReturnReset(), I2C1_CallbackReturnStop(), Absolute function(), rdBlkRegCompleteHandler(), 
		 -> wr2RegCompleteHandler(), wr1RegCompleteHandler(), rd2RegCompleteHandler(), rd1RegCompleteHandler(), 

    I2C1_MasterFsm$2203	const PTR FTN()enum E6874 size(3) Largest target is 1
		 -> I2C1_DO_ADDRESS_NACK(), I2C1_DO_RESET(), I2C1_DO_RX_NACK_RESTART(), I2C1_DO_RX_NACK_STOP(), 
		 -> I2C1_DO_RX_ACK(), I2C1_DO_SEND_STOP(), I2C1_DO_SEND_RESTART(), I2C1_DO_SEND_RESTART_WRITE(), 
		 -> I2C1_DO_SEND_RESTART_READ(), I2C1_DO_TX_EMPTY(), I2C1_DO_RCEN(), I2C1_DO_RX(), 
		 -> I2C1_DO_TX(), I2C1_DO_SEND_ADR_WRITE(), I2C1_DO_SEND_ADR_READ(), I2C1_DO_IDLE(), 

    I2C1_CallbackReturnStop@funPtr	PTR void  size(2) Largest target is 5
		 -> I2C1_ReadDataBlock@bufferBlock(COMRAM[4]), I2C1_Write2ByteRegister@data(COMRAM[2]), I2C1_Write1ByteRegister@data(COMRAM[1]), I2C1_Read2ByteRegister@returnValue(COMRAM[2]), 
		 -> NULL(NULL[0]), I2C1_Read1ByteRegister@returnValue(COMRAM[1]), 

    I2C1_CallbackReturnReset@funPtr	PTR void  size(2) Largest target is 5
		 -> I2C1_ReadDataBlock@bufferBlock(COMRAM[4]), I2C1_Write2ByteRegister@data(COMRAM[2]), I2C1_Write1ByteRegister@data(COMRAM[1]), I2C1_Read2ByteRegister@returnValue(COMRAM[2]), 
		 -> NULL(NULL[0]), I2C1_Read1ByteRegister@returnValue(COMRAM[1]), 

    cb$0	PTR void  size(2) Largest target is 5
		 -> I2C1_ReadDataBlock@bufferBlock(COMRAM[4]), I2C1_Write2ByteRegister@data(COMRAM[2]), I2C1_Write1ByteRegister@data(COMRAM[1]), I2C1_Read2ByteRegister@returnValue(COMRAM[2]), 
		 -> NULL(NULL[0]), I2C1_Read1ByteRegister@returnValue(COMRAM[1]), 

    Absolute function$0	PTR void  size(2) Largest target is 5
		 -> I2C1_ReadDataBlock@bufferBlock(COMRAM[4]), I2C1_Write2ByteRegister@data(COMRAM[2]), I2C1_Write1ByteRegister@data(COMRAM[1]), I2C1_Read2ByteRegister@returnValue(COMRAM[2]), 
		 -> NULL(NULL[0]), I2C1_Read1ByteRegister@returnValue(COMRAM[1]), 

    cb$0	PTR void  size(2) Largest target is 5
		 -> I2C1_ReadDataBlock@bufferBlock(COMRAM[4]), I2C1_Write2ByteRegister@data(COMRAM[2]), I2C1_Write1ByteRegister@data(COMRAM[1]), I2C1_Read2ByteRegister@returnValue(COMRAM[2]), 
		 -> NULL(NULL[0]), I2C1_Read1ByteRegister@returnValue(COMRAM[1]), 

    S535$0$0	PTR void  size(2) Largest target is 5
		 -> I2C1_ReadDataBlock@bufferBlock(COMRAM[4]), I2C1_Write2ByteRegister@data(COMRAM[2]), I2C1_Write1ByteRegister@data(COMRAM[1]), I2C1_Read2ByteRegister@returnValue(COMRAM[2]), 
		 -> NULL(NULL[0]), I2C1_Read1ByteRegister@returnValue(COMRAM[1]), 

    MAX30100_read_led_data@sens	PTR struct . size(2) Largest target is 8
		 -> main@senzor(COMRAM[8]), 

    srednja_vrednost@niz	PTR unsigned short  size(2) Largest target is 128
		 -> main@ir_niz(BANK1[128]), main@red_niz(BANK0[128]), 

    I2C1_SetCallback@ptr	PTR void  size(2) Largest target is 5
		 -> I2C1_ReadDataBlock@bufferBlock(COMRAM[4]), I2C1_Write2ByteRegister@data(COMRAM[2]), I2C1_Write1ByteRegister@data(COMRAM[1]), I2C1_Read2ByteRegister@returnValue(COMRAM[2]), 
		 -> NULL(NULL[0]), I2C1_Read1ByteRegister@returnValue(COMRAM[1]), 

    I2C1_SetCallback@cb	PTR FTN(PTR void ,)enum E360 size(3) Largest target is 1
		 -> Absolute function(), rdBlkRegCompleteHandler(), wr2RegCompleteHandler(), wr1RegCompleteHandler(), 
		 -> rd2RegCompleteHandler(), rd1RegCompleteHandler(), 

    I2C1_SetAddressNackCallback@ptr	PTR void  size(2) Largest target is 0
		 -> NULL(NULL[0]), 

    I2C1_SetAddressNackCallback@cb	PTR FTN(PTR void ,)enum E360 size(3) Largest target is 1
		 -> Absolute function(), 

    I2C1_SetDataCompleteCallback@ptr	PTR void  size(2) Largest target is 5
		 -> I2C1_ReadDataBlock@bufferBlock(COMRAM[4]), I2C1_Write2ByteRegister@data(COMRAM[2]), I2C1_Write1ByteRegister@data(COMRAM[1]), I2C1_Read2ByteRegister@returnValue(COMRAM[2]), 
		 -> NULL(NULL[0]), I2C1_Read1ByteRegister@returnValue(COMRAM[1]), 

    I2C1_SetDataCompleteCallback@cb	PTR FTN(PTR void ,)enum E360 size(3) Largest target is 1
		 -> Absolute function(), rdBlkRegCompleteHandler(), wr2RegCompleteHandler(), wr1RegCompleteHandler(), 
		 -> rd2RegCompleteHandler(), rd1RegCompleteHandler(), 

    I2C1_SetBuffer@buffer	PTR void  size(2) Largest target is 5
		 -> MAX30100_read_led_data@tmp_reg(BANK0[4]), I2C1_ReadDataBlock@reg(COMRAM[1]), I2C1_ReadDataBlock@bufferBlock(COMRAM[4]), I2C1_Write2ByteRegister@reg(COMRAM[1]), 
		 -> I2C1_Write2ByteRegister@data(COMRAM[2]), I2C1_Write1ByteRegister@reg(COMRAM[1]), I2C1_Write1ByteRegister@data(COMRAM[1]), I2C1_Read2ByteRegister@reg(COMRAM[1]), 
		 -> I2C1_Read2ByteRegister@returnValue(COMRAM[2]), NULL(NULL[0]), I2C1_Read1ByteRegister@reg(COMRAM[1]), I2C1_Read1ByteRegister@returnValue(COMRAM[1]), 

    S535$data_ptr	PTR unsigned char  size(2) Largest target is 5
		 -> MAX30100_read_led_data@tmp_reg(BANK0[4]), I2C1_ReadDataBlock@reg(COMRAM[1]), I2C1_ReadDataBlock@bufferBlock(COMRAM[4]), I2C1_Write2ByteRegister@reg(COMRAM[1]), 
		 -> I2C1_Write2ByteRegister@data(COMRAM[2]), I2C1_Write1ByteRegister@reg(COMRAM[1]), I2C1_Write1ByteRegister@data(COMRAM[1]), I2C1_Read2ByteRegister@reg(COMRAM[1]), 
		 -> I2C1_Read2ByteRegister@returnValue(COMRAM[2]), NULL(NULL[0]), I2C1_Read1ByteRegister@reg(COMRAM[1]), I2C1_Read1ByteRegister@returnValue(COMRAM[1]), 

    I2C1_Status.data_ptr	PTR unsigned char  size(2) Largest target is 5
		 -> MAX30100_read_led_data@tmp_reg(BANK0[4]), I2C1_ReadDataBlock@reg(COMRAM[1]), I2C1_ReadDataBlock@bufferBlock(COMRAM[4]), I2C1_Write2ByteRegister@reg(COMRAM[1]), 
		 -> I2C1_Write2ByteRegister@data(COMRAM[2]), I2C1_Write1ByteRegister@reg(COMRAM[1]), I2C1_Write1ByteRegister@data(COMRAM[1]), I2C1_Read2ByteRegister@reg(COMRAM[1]), 
		 -> I2C1_Read2ByteRegister@returnValue(COMRAM[2]), NULL(NULL[0]), I2C1_Read1ByteRegister@reg(COMRAM[1]), I2C1_Read1ByteRegister@returnValue(COMRAM[1]), 

    S535$callbackPayload	PTR void [6] size(2) Largest target is 5
		 -> I2C1_ReadDataBlock@bufferBlock(COMRAM[4]), I2C1_Write2ByteRegister@data(COMRAM[2]), I2C1_Write1ByteRegister@data(COMRAM[1]), I2C1_Read2ByteRegister@returnValue(COMRAM[2]), 
		 -> NULL(NULL[0]), I2C1_Read1ByteRegister@returnValue(COMRAM[1]), 

    I2C1_Status.callbackPayload	PTR void [6] size(2) Largest target is 5
		 -> I2C1_ReadDataBlock@bufferBlock(COMRAM[4]), I2C1_Write2ByteRegister@data(COMRAM[2]), I2C1_Write1ByteRegister@data(COMRAM[1]), I2C1_Read2ByteRegister@returnValue(COMRAM[2]), 
		 -> NULL(NULL[0]), I2C1_Read1ByteRegister@returnValue(COMRAM[1]), 

    S535$callbackTable	PTR FTN(PTR void ,)enum E360[6] size(3) Largest target is 1
		 -> I2C1_CallbackReturnReset(), I2C1_CallbackReturnStop(), Absolute function(), rdBlkRegCompleteHandler(), 
		 -> wr2RegCompleteHandler(), wr1RegCompleteHandler(), rd2RegCompleteHandler(), rd1RegCompleteHandler(), 

    I2C1_Status.callbackTable	PTR FTN(PTR void ,)enum E360[6] size(3) Largest target is 1
		 -> I2C1_CallbackReturnReset(), I2C1_CallbackReturnStop(), Absolute function(), rdBlkRegCompleteHandler(), 
		 -> wr2RegCompleteHandler(), wr1RegCompleteHandler(), rd2RegCompleteHandler(), rd1RegCompleteHandler(), 

    i2c1_fsmStateTable	const PTR FTN()enum E6874[16] size(3) Largest target is 1
		 -> I2C1_DO_ADDRESS_NACK(), I2C1_DO_RESET(), I2C1_DO_RX_NACK_RESTART(), I2C1_DO_RX_NACK_STOP(), 
		 -> I2C1_DO_RX_ACK(), I2C1_DO_SEND_STOP(), I2C1_DO_SEND_RESTART(), I2C1_DO_SEND_RESTART_WRITE(), 
		 -> I2C1_DO_SEND_RESTART_READ(), I2C1_DO_TX_EMPTY(), I2C1_DO_RCEN(), I2C1_DO_RX(), 
		 -> I2C1_DO_TX(), I2C1_DO_SEND_ADR_WRITE(), I2C1_DO_SEND_ADR_READ(), I2C1_DO_IDLE(), 

    EUSART1_SetErrorHandler@interruptHandler	PTR FTN()void  size(3) Largest target is 1
		 -> EUSART1_DefaultErrorHandler(), 

    EUSART1_ErrorHandler	PTR FTN()void  size(3) Largest target is 1
		 -> Absolute function(), EUSART1_DefaultErrorHandler(), 

    EUSART1_SetOverrunErrorHandler@interruptHandler	PTR FTN()void  size(3) Largest target is 1
		 -> EUSART1_DefaultOverrunErrorHandler(), 

    EUSART1_OverrunErrorHandler	PTR FTN()void  size(3) Largest target is 1
		 -> Absolute function(), EUSART1_DefaultOverrunErrorHandler(), 

    EUSART1_SetFramingErrorHandler@interruptHandler	PTR FTN()void  size(3) Largest target is 1
		 -> EUSART1_DefaultFramingErrorHandler(), 

    EUSART1_FramingErrorHandler	PTR FTN()void  size(3) Largest target is 1
		 -> Absolute function(), EUSART1_DefaultFramingErrorHandler(), 

    rdBlkRegCompleteHandler@ptr.data	PTR unsigned char  size(2) Largest target is 4
		 -> MAX30100_read_led_data@tmp_reg(BANK0[4]), 

    rdBlkRegCompleteHandler@ptr	PTR void  size(2) Largest target is 5
		 -> I2C1_ReadDataBlock@bufferBlock(COMRAM[4]), I2C1_Write2ByteRegister@data(COMRAM[2]), I2C1_Write1ByteRegister@data(COMRAM[1]), I2C1_Read2ByteRegister@returnValue(COMRAM[2]), 
		 -> NULL(NULL[0]), I2C1_Read1ByteRegister@returnValue(COMRAM[1]), 

    wr2RegCompleteHandler@ptr	PTR void  size(2) Largest target is 5
		 -> I2C1_ReadDataBlock@bufferBlock(COMRAM[4]), I2C1_Write2ByteRegister@data(COMRAM[2]), I2C1_Write1ByteRegister@data(COMRAM[1]), I2C1_Read2ByteRegister@returnValue(COMRAM[2]), 
		 -> NULL(NULL[0]), I2C1_Read1ByteRegister@returnValue(COMRAM[1]), 

    wr1RegCompleteHandler@ptr	PTR void  size(2) Largest target is 5
		 -> I2C1_ReadDataBlock@bufferBlock(COMRAM[4]), I2C1_Write2ByteRegister@data(COMRAM[2]), I2C1_Write1ByteRegister@data(COMRAM[1]), I2C1_Read2ByteRegister@returnValue(COMRAM[2]), 
		 -> NULL(NULL[0]), I2C1_Read1ByteRegister@returnValue(COMRAM[1]), 

    rd2RegCompleteHandler@ptr	PTR void  size(2) Largest target is 5
		 -> I2C1_ReadDataBlock@bufferBlock(COMRAM[4]), I2C1_Write2ByteRegister@data(COMRAM[2]), I2C1_Write1ByteRegister@data(COMRAM[1]), I2C1_Read2ByteRegister@returnValue(COMRAM[2]), 
		 -> NULL(NULL[0]), I2C1_Read1ByteRegister@returnValue(COMRAM[1]), 

    rd1RegCompleteHandler@ptr	PTR void  size(2) Largest target is 5
		 -> I2C1_ReadDataBlock@bufferBlock(COMRAM[4]), I2C1_Write2ByteRegister@data(COMRAM[2]), I2C1_Write1ByteRegister@data(COMRAM[1]), I2C1_Read2ByteRegister@returnValue(COMRAM[2]), 
		 -> NULL(NULL[0]), I2C1_Read1ByteRegister@returnValue(COMRAM[1]), 

    I2C1_ReadDataBlock@data	PTR unsigned char  size(2) Largest target is 4
		 -> MAX30100_read_led_data@tmp_reg(BANK0[4]), 

    S96$data	PTR unsigned char  size(2) Largest target is 4
		 -> MAX30100_read_led_data@tmp_reg(BANK0[4]), 

    bufferBlock.data	PTR unsigned char  size(2) Largest target is 4
		 -> MAX30100_read_led_data@tmp_reg(BANK0[4]), 


Critical Paths under _main in COMRAM

    _main->_MAX30100_read_led_data
    _EUSART1_Initialize->_EUSART1_SetErrorHandler
    _EUSART1_Initialize->_EUSART1_SetFramingErrorHandler
    _EUSART1_Initialize->_EUSART1_SetOverrunErrorHandler
    _MAX30100_read_led_data->_I2C1_ReadDataBlock
    _MAX30100_init->_I2C1_Write1ByteRegister
    _MAX30100_FIFO_init->_I2C1_Write1ByteRegister
    _I2C1_SetAddressNackCallback->_I2C1_SetCallback
    _I2C1_MasterWrite->_I2C1_MasterOperation
    _I2C1_MasterFsm->_I2C1_DO_ADDRESS_NACK
    _I2C1_MasterFsm->_I2C1_DO_RX
    _I2C1_MasterFsm->_I2C1_DO_TX
    _I2C1_MasterFsm->_I2C1_DO_TX_EMPTY
    _I2C1_DO_TX_EMPTY->_I2C1_CallbackReturnReset
    _I2C1_DO_TX_EMPTY->_I2C1_CallbackReturnStop
    _I2C1_DO_TX_EMPTY->_rd1RegCompleteHandler
    _I2C1_DO_TX_EMPTY->_rd2RegCompleteHandler
    _I2C1_DO_TX_EMPTY->_rdBlkRegCompleteHandler
    _I2C1_DO_TX_EMPTY->_wr1RegCompleteHandler
    _I2C1_DO_TX_EMPTY->_wr2RegCompleteHandler
    _I2C1_DO_TX->_I2C1_CallbackReturnReset
    _I2C1_DO_TX->_I2C1_CallbackReturnStop
    _I2C1_DO_TX->_rd1RegCompleteHandler
    _I2C1_DO_TX->_rd2RegCompleteHandler
    _I2C1_DO_TX->_rdBlkRegCompleteHandler
    _I2C1_DO_TX->_wr1RegCompleteHandler
    _I2C1_DO_TX->_wr2RegCompleteHandler
    _I2C1_DO_SEND_ADR_WRITE->_I2C1_MasterSendTxData
    _I2C1_DO_RX->_I2C1_CallbackReturnReset
    _I2C1_DO_RX->_I2C1_CallbackReturnStop
    _I2C1_DO_RX->_rd1RegCompleteHandler
    _I2C1_DO_RX->_rd2RegCompleteHandler
    _I2C1_DO_RX->_rdBlkRegCompleteHandler
    _I2C1_DO_RX->_wr1RegCompleteHandler
    _I2C1_DO_RX->_wr2RegCompleteHandler
    _I2C1_DO_ADDRESS_NACK->_I2C1_CallbackReturnReset
    _I2C1_DO_ADDRESS_NACK->_I2C1_CallbackReturnStop
    _I2C1_DO_ADDRESS_NACK->_rd1RegCompleteHandler
    _I2C1_DO_ADDRESS_NACK->_rd2RegCompleteHandler
    _I2C1_DO_ADDRESS_NACK->_rdBlkRegCompleteHandler
    _I2C1_DO_ADDRESS_NACK->_wr1RegCompleteHandler
    _I2C1_DO_ADDRESS_NACK->_wr2RegCompleteHandler
    _wr2RegCompleteHandler->_I2C1_SetDataCompleteCallback
    _wr1RegCompleteHandler->_I2C1_SetDataCompleteCallback
    _rdBlkRegCompleteHandler->_I2C1_SetDataCompleteCallback
    _rd2RegCompleteHandler->_I2C1_SetDataCompleteCallback
    _rd1RegCompleteHandler->_I2C1_SetDataCompleteCallback
    _I2C1_SetDataCompleteCallback->_I2C1_SetCallback

Critical Paths under _main in BANK0

    None.

Critical Paths under _main in BANK1

    None.

Critical Paths under _main in BANK2

    None.

Critical Paths under _main in BANK3

    None.

Critical Paths under _main in BANK4

    None.

Critical Paths under _main in BANK5

    None.

Critical Paths under _main in BANK6

    None.

Critical Paths under _main in BANK7

    None.

Critical Paths under _main in BANK8

    None.

Critical Paths under _main in BANK9

    None.

Critical Paths under _main in BANK10

    None.

Critical Paths under _main in BANK11

    None.

Critical Paths under _main in BANK12

    None.

Critical Paths under _main in BANK13

    None.

Critical Paths under _main in BANK14

    None.

Critical Paths under _main in BANK15

    None.

Call Graph Tables:

 ---------------------------------------------------------------------------------
 (Depth) Function   	        Calls       Base Space   Used Autos Params    Refs
 ---------------------------------------------------------------------------------
 (0) _main                                               273   273      0  289468
                                             31 COMRAM    15    15      0
                                              0 BANK0    128   128      0
                                              0 BANK1    128   128      0
                      _EUSART1_Write
                 _MAX30100_FIFO_init
                      _MAX30100_init
             _MAX30100_read_led_data
                  _SYSTEM_Initialize
                   _srednja_vrednost
 ---------------------------------------------------------------------------------
 (1) _srednja_vrednost                                    12     9      3     438
                                              0 COMRAM    12     9      3
 ---------------------------------------------------------------------------------
 (1) _SYSTEM_Initialize                                    0     0      0     294
                 _EUSART1_Initialize
                    _I2C1_Initialize
              _OSCILLATOR_Initialize
             _PIN_MANAGER_Initialize
 ---------------------------------------------------------------------------------
 (2) _PIN_MANAGER_Initialize                               0     0      0       0
 ---------------------------------------------------------------------------------
 (2) _OSCILLATOR_Initialize                                0     0      0       0
 ---------------------------------------------------------------------------------
 (2) _I2C1_Initialize                                      0     0      0       0
 ---------------------------------------------------------------------------------
 (2) _EUSART1_Initialize                                   0     0      0     294
            _EUSART1_SetErrorHandler
     _EUSART1_SetFramingErrorHandler
     _EUSART1_SetOverrunErrorHandler
 ---------------------------------------------------------------------------------
 (3) _EUSART1_SetOverrunErrorHandler                       3     0      3      98
                                              0 COMRAM     3     0      3
 ---------------------------------------------------------------------------------
 (3) _EUSART1_SetFramingErrorHandler                       3     0      3      98
                                              0 COMRAM     3     0      3
 ---------------------------------------------------------------------------------
 (3) _EUSART1_SetErrorHandler                              3     0      3      98
                                              0 COMRAM     3     0      3
 ---------------------------------------------------------------------------------
 (1) _MAX30100_read_led_data                               4     2      2   95397
                                             27 COMRAM     4     2      2
                 _I2C1_ReadDataBlock
 ---------------------------------------------------------------------------------
 (2) _I2C1_ReadDataBlock                                  10     5      5   95277
                                             17 COMRAM    10     5      5
                         _I2C1_Close
                   _I2C1_MasterWrite
                          _I2C1_Open
        _I2C1_SetAddressNackCallback
                     _I2C1_SetBuffer
       _I2C1_SetDataCompleteCallback
 ---------------------------------------------------------------------------------
 (1) _MAX30100_init                                        7     3      4   96656
                                             20 COMRAM     7     3      4
            _I2C1_Write1ByteRegister
 ---------------------------------------------------------------------------------
 (1) _MAX30100_FIFO_init                                   0     0      0   96196
            _I2C1_Write1ByteRegister
 ---------------------------------------------------------------------------------
 (2) _I2C1_Write1ByteRegister                              3     1      2   96196
                                             17 COMRAM     3     1      2
                         _I2C1_Close
                   _I2C1_MasterWrite
                          _I2C1_Open
        _I2C1_SetAddressNackCallback
                     _I2C1_SetBuffer
       _I2C1_SetDataCompleteCallback
 ---------------------------------------------------------------------------------
 (3) _I2C1_SetAddressNackCallback                          5     0      5    1870
                                              6 COMRAM     5     0      5
                   _I2C1_SetCallback
 ---------------------------------------------------------------------------------
 (3) _I2C1_Open                                            2     2      0      46
                                              0 COMRAM     2     2      0
                _I2C1_MasterClearIrq
                    _I2C1_MasterOpen
 ---------------------------------------------------------------------------------
 (4) _I2C1_MasterOpen                                      0     0      0       0
 ---------------------------------------------------------------------------------
 (3) _I2C1_MasterWrite                                     0     0      0   88620
               _I2C1_MasterOperation
 ---------------------------------------------------------------------------------
 (4) _I2C1_MasterOperation                                 2     2      0   88620
                                             15 COMRAM     2     2      0
                   _I2C1_MasterStart
                        _I2C1_Poller
 ---------------------------------------------------------------------------------
 (5) _I2C1_Poller                                          0     0      0   88574
                     _I2C1_MasterFsm
            _I2C1_MasterWaitForEvent
 ---------------------------------------------------------------------------------
 (6) _I2C1_MasterWaitForEvent                              0     0      0       0
 ---------------------------------------------------------------------------------
 (6) _I2C1_MasterFsm                                       0     0      0   88574
               _I2C1_DO_ADDRESS_NACK *
                       _I2C1_DO_IDLE *
                       _I2C1_DO_RCEN *
                      _I2C1_DO_RESET *
                         _I2C1_DO_RX *
                     _I2C1_DO_RX_ACK *
            _I2C1_DO_RX_NACK_RESTART *
               _I2C1_DO_RX_NACK_STOP *
              _I2C1_DO_SEND_ADR_READ *
             _I2C1_DO_SEND_ADR_WRITE *
               _I2C1_DO_SEND_RESTART *
          _I2C1_DO_SEND_RESTART_READ *
         _I2C1_DO_SEND_RESTART_WRITE *
                  _I2C1_DO_SEND_STOP *
                         _I2C1_DO_TX *
                   _I2C1_DO_TX_EMPTY *
                _I2C1_MasterClearIrq
                  _I2C1_MasterIsNack
 ---------------------------------------------------------------------------------
 (7) _I2C1_DO_TX_EMPTY                                     2     2      0   22127
                                             13 COMRAM     2     2      0
                   Absolute function *
           _I2C1_CallbackReturnReset *
            _I2C1_CallbackReturnStop *
               _I2C1_DO_SEND_RESTART
                  _I2C1_DO_SEND_STOP
                  _I2C1_MasterSetIrq
              _rd1RegCompleteHandler *
              _rd2RegCompleteHandler *
            _rdBlkRegCompleteHandler *
              _wr1RegCompleteHandler *
              _wr2RegCompleteHandler *
 ---------------------------------------------------------------------------------
 (8) _I2C1_MasterSetIrq                                    0     0      0       0
 ---------------------------------------------------------------------------------
 (7) _I2C1_DO_TX                                           2     2      0   22149
                                             13 COMRAM     2     2      0
                   Absolute function *
           _I2C1_CallbackReturnReset *
            _I2C1_CallbackReturnStop *
          _I2C1_DO_SEND_RESTART_READ
         _I2C1_DO_SEND_RESTART_WRITE
                  _I2C1_DO_SEND_STOP
                  _I2C1_MasterIsNack
              _I2C1_MasterSendTxData
              _rd1RegCompleteHandler *
              _rd2RegCompleteHandler *
            _rdBlkRegCompleteHandler *
              _wr1RegCompleteHandler *
              _wr2RegCompleteHandler *
 ---------------------------------------------------------------------------------
 (7) _I2C1_MasterIsNack                                    0     0      0       0
 ---------------------------------------------------------------------------------
 (8) _I2C1_DO_SEND_RESTART_WRITE                           0     0      0       0
           _I2C1_MasterEnableRestart
 ---------------------------------------------------------------------------------
 (8) _I2C1_DO_SEND_RESTART_READ                            0     0      0       0
           _I2C1_MasterEnableRestart
 ---------------------------------------------------------------------------------
 (7) _I2C1_DO_SEND_ADR_WRITE                               0     0      0      22
              _I2C1_MasterSendTxData
 ---------------------------------------------------------------------------------
 (7) _I2C1_DO_SEND_ADR_READ                                0     0      0      22
              _I2C1_MasterSendTxData
 ---------------------------------------------------------------------------------
 (8) _I2C1_MasterSendTxData                                1     1      0      22
                                              0 COMRAM     1     1      0
 ---------------------------------------------------------------------------------
 (7) _I2C1_DO_RX_ACK                                       0     0      0       0
                 _I2C1_MasterSendAck
 ---------------------------------------------------------------------------------
 (7) _I2C1_DO_RX                                           2     2      0   22127
                                             13 COMRAM     2     2      0
                   Absolute function *
           _I2C1_CallbackReturnReset *
            _I2C1_CallbackReturnStop *
            _I2C1_DO_RX_NACK_RESTART
               _I2C1_DO_RX_NACK_STOP
               _I2C1_MasterGetRxData
                 _I2C1_MasterSendAck
              _rd1RegCompleteHandler *
              _rd2RegCompleteHandler *
            _rdBlkRegCompleteHandler *
              _wr1RegCompleteHandler *
              _wr2RegCompleteHandler *
 ---------------------------------------------------------------------------------
 (8) _I2C1_MasterSendAck                                   0     0      0       0
 ---------------------------------------------------------------------------------
 (8) _I2C1_MasterGetRxData                                 0     0      0       0
 ---------------------------------------------------------------------------------
 (7) _I2C1_DO_RX_NACK_STOP                                 0     0      0       0
                _I2C1_MasterSendNack
 ---------------------------------------------------------------------------------
 (7) _I2C1_DO_RX_NACK_RESTART                              0     0      0       0
                _I2C1_MasterSendNack
 ---------------------------------------------------------------------------------
 (8) _I2C1_MasterSendNack                                  0     0      0       0
 ---------------------------------------------------------------------------------
 (7) _I2C1_DO_RESET                                        0     0      0       0
 ---------------------------------------------------------------------------------
 (7) _I2C1_DO_RCEN                                         0     0      0       0
                 _I2C1_MasterStartRx
 ---------------------------------------------------------------------------------
 (8) _I2C1_MasterStartRx                                   0     0      0       0
 ---------------------------------------------------------------------------------
 (7) _I2C1_DO_IDLE                                         0     0      0       0
 ---------------------------------------------------------------------------------
 (7) _I2C1_DO_ADDRESS_NACK                                 2     2      0   22127
                                             13 COMRAM     2     2      0
                   Absolute function *
           _I2C1_CallbackReturnReset *
            _I2C1_CallbackReturnStop *
               _I2C1_DO_SEND_RESTART
                  _I2C1_DO_SEND_STOP
              _rd1RegCompleteHandler *
              _rd2RegCompleteHandler *
            _rdBlkRegCompleteHandler *
              _wr1RegCompleteHandler *
              _wr2RegCompleteHandler *
 ---------------------------------------------------------------------------------
 (8) _wr2RegCompleteHandler                                2     0      2    4368
                                             11 COMRAM     2     0      2
                     _I2C1_SetBuffer
       _I2C1_SetDataCompleteCallback
 ---------------------------------------------------------------------------------
 (8) _wr1RegCompleteHandler                                2     0      2    4368
                                             11 COMRAM     2     0      2
                     _I2C1_SetBuffer
       _I2C1_SetDataCompleteCallback
 ---------------------------------------------------------------------------------
 (8) _rdBlkRegCompleteHandler                              2     0      2    4390
                                             11 COMRAM     2     0      2
                     _I2C1_SetBuffer
       _I2C1_SetDataCompleteCallback
 ---------------------------------------------------------------------------------
 (8) _rd2RegCompleteHandler                                2     0      2    4368
                                             11 COMRAM     2     0      2
                     _I2C1_SetBuffer
       _I2C1_SetDataCompleteCallback
 ---------------------------------------------------------------------------------
 (8) _rd1RegCompleteHandler                                2     0      2    4368
                                             11 COMRAM     2     0      2
                     _I2C1_SetBuffer
       _I2C1_SetDataCompleteCallback
 ---------------------------------------------------------------------------------
 (3) _I2C1_SetDataCompleteCallback                         5     0      5    2478
                                              6 COMRAM     5     0      5
                   _I2C1_SetCallback
 ---------------------------------------------------------------------------------
 (4) _I2C1_SetCallback                                     6     1      5     914
                                              0 COMRAM     6     1      5
 ---------------------------------------------------------------------------------
 (3) _I2C1_SetBuffer                                       4     0      4    1868
                                              0 COMRAM     4     0      4
 ---------------------------------------------------------------------------------
 (8) _I2C1_DO_SEND_STOP                                    0     0      0       0
                    _I2C1_MasterStop
 ---------------------------------------------------------------------------------
 (9) _I2C1_MasterStop                                      0     0      0       0
 ---------------------------------------------------------------------------------
 (8) _I2C1_DO_SEND_RESTART                                 0     0      0       0
           _I2C1_MasterEnableRestart
 ---------------------------------------------------------------------------------
 (9) _I2C1_MasterEnableRestart                             0     0      0       0
 ---------------------------------------------------------------------------------
 (8) _I2C1_CallbackReturnStop                              2     0      2       0
                                             11 COMRAM     2     0      2
 ---------------------------------------------------------------------------------
 (8) _I2C1_CallbackReturnReset                             2     0      2     265
                                             11 COMRAM     2     0      2
 ---------------------------------------------------------------------------------
 (8) Absolute function(Fake)                               2     0      2       0
 ---------------------------------------------------------------------------------
 (5) _I2C1_MasterStart                                     0     0      0       0
 ---------------------------------------------------------------------------------
 (3) _I2C1_Close                                           1     1      0      24
                                              0 COMRAM     1     1      0
                _I2C1_MasterClearIrq
                   _I2C1_MasterClose
              _I2C1_MasterDisableIrq
 ---------------------------------------------------------------------------------
 (4) _I2C1_MasterDisableIrq                                0     0      0       0
 ---------------------------------------------------------------------------------
 (4) _I2C1_MasterClose                                     0     0      0       0
 ---------------------------------------------------------------------------------
 (4) _I2C1_MasterClearIrq                                  0     0      0       0
 ---------------------------------------------------------------------------------
 (1) _EUSART1_Write                                        1     1      0      22
                                              0 COMRAM     1     1      0
 ---------------------------------------------------------------------------------
 Estimated maximum stack depth 9
 ---------------------------------------------------------------------------------

 Call Graph Graphs:

 _main (ROOT)
   _EUSART1_Write
   _MAX30100_FIFO_init
     _I2C1_Write1ByteRegister
       _I2C1_Close
         _I2C1_MasterClearIrq
         _I2C1_MasterClose
         _I2C1_MasterDisableIrq
       _I2C1_MasterWrite
         _I2C1_MasterOperation
           _I2C1_MasterStart
           _I2C1_Poller
             _I2C1_MasterFsm
               _I2C1_DO_ADDRESS_NACK *
                 Absolute function(Fake) *
                 _I2C1_CallbackReturnReset *
                 _I2C1_CallbackReturnStop *
                 _I2C1_DO_SEND_RESTART *
                   _I2C1_MasterEnableRestart
                 _I2C1_DO_SEND_STOP *
                   _I2C1_MasterStop
                 _rd1RegCompleteHandler *
                   _I2C1_SetBuffer
                   _I2C1_SetDataCompleteCallback
                     _I2C1_SetCallback
                 _rd2RegCompleteHandler *
                   _I2C1_SetBuffer
                   _I2C1_SetDataCompleteCallback
                 _rdBlkRegCompleteHandler *
                   _I2C1_SetBuffer
                   _I2C1_SetDataCompleteCallback
                 _wr1RegCompleteHandler *
                   _I2C1_SetBuffer
                   _I2C1_SetDataCompleteCallback
                 _wr2RegCompleteHandler *
                   _I2C1_SetBuffer
                   _I2C1_SetDataCompleteCallback
               _I2C1_DO_IDLE *
               _I2C1_DO_RCEN *
                 _I2C1_MasterStartRx
               _I2C1_DO_RESET *
               _I2C1_DO_RX *
                 Absolute function(Fake) *
                 _I2C1_CallbackReturnReset *
                 _I2C1_CallbackReturnStop *
                 _I2C1_DO_RX_NACK_RESTART *
                   _I2C1_MasterSendNack
                 _I2C1_DO_RX_NACK_STOP *
                   _I2C1_MasterSendNack
                 _I2C1_MasterGetRxData *
                 _I2C1_MasterSendAck *
                 _rd1RegCompleteHandler *
                 _rd2RegCompleteHandler *
                 _rdBlkRegCompleteHandler *
                 _wr1RegCompleteHandler *
                 _wr2RegCompleteHandler *
               _I2C1_DO_RX_ACK *
                 _I2C1_MasterSendAck
               _I2C1_DO_RX_NACK_RESTART *
               _I2C1_DO_RX_NACK_STOP *
               _I2C1_DO_SEND_ADR_READ *
                 _I2C1_MasterSendTxData
               _I2C1_DO_SEND_ADR_WRITE *
                 _I2C1_MasterSendTxData
               _I2C1_DO_SEND_RESTART *
               _I2C1_DO_SEND_RESTART_READ *
                 _I2C1_MasterEnableRestart
               _I2C1_DO_SEND_RESTART_WRITE *
                 _I2C1_MasterEnableRestart
               _I2C1_DO_SEND_STOP *
               _I2C1_DO_TX *
                 Absolute function(Fake) *
                 _I2C1_CallbackReturnReset *
                 _I2C1_CallbackReturnStop *
                 _I2C1_DO_SEND_RESTART_READ *
                 _I2C1_DO_SEND_RESTART_WRITE *
                 _I2C1_DO_SEND_STOP *
                 _I2C1_MasterIsNack *
                 _I2C1_MasterSendTxData *
                 _rd1RegCompleteHandler *
                 _rd2RegCompleteHandler *
                 _rdBlkRegCompleteHandler *
                 _wr1RegCompleteHandler *
                 _wr2RegCompleteHandler *
               _I2C1_DO_TX_EMPTY *
                 Absolute function(Fake) *
                 _I2C1_CallbackReturnReset *
                 _I2C1_CallbackReturnStop *
                 _I2C1_DO_SEND_RESTART *
                 _I2C1_DO_SEND_STOP *
                 _I2C1_MasterSetIrq *
                 _rd1RegCompleteHandler *
                 _rd2RegCompleteHandler *
                 _rdBlkRegCompleteHandler *
                 _wr1RegCompleteHandler *
                 _wr2RegCompleteHandler *
               _I2C1_MasterClearIrq *
               _I2C1_MasterIsNack *
             _I2C1_MasterWaitForEvent
       _I2C1_Open
         _I2C1_MasterClearIrq
         _I2C1_MasterOpen
       _I2C1_SetAddressNackCallback
         _I2C1_SetCallback
       _I2C1_SetBuffer
       _I2C1_SetDataCompleteCallback
   _MAX30100_init
     _I2C1_Write1ByteRegister
   _MAX30100_read_led_data
     _I2C1_ReadDataBlock
       _I2C1_Close
       _I2C1_MasterWrite
       _I2C1_Open
       _I2C1_SetAddressNackCallback
       _I2C1_SetBuffer
       _I2C1_SetDataCompleteCallback
   _SYSTEM_Initialize
     _EUSART1_Initialize
       _EUSART1_SetErrorHandler
       _EUSART1_SetFramingErrorHandler
       _EUSART1_SetOverrunErrorHandler
     _I2C1_Initialize
     _OSCILLATOR_Initialize
     _PIN_MANAGER_Initialize
   _srednja_vrednost

 Address spaces:
Name               Size   Autos  Total    Cost      Usage
BIGRAM             F15      0       0      50        0.0%
EEDATA             400      0       0       0        0.0%
BITBANK14          100      0       0      32        0.0%
BANK14             100      0       0      33        0.0%
BITBANK13          100      0       0      30        0.0%
BANK13             100      0       0      31        0.0%
BITBANK12          100      0       0      28        0.0%
BANK12             100      0       0      29        0.0%
BITBANK11          100      0       0      26        0.0%
BANK11             100      0       0      27        0.0%
BITBANK10          100      0       0      24        0.0%
BANK10             100      0       0      25        0.0%
BITBANK9           100      0       0      22        0.0%
BANK9              100      0       0      23        0.0%
BITBANK8           100      0       0      20        0.0%
BANK8              100      0       0      21        0.0%
BITBANK7           100      0       0      18        0.0%
BANK7              100      0       0      19        0.0%
BITBANK6           100      0       0      16        0.0%
BANK6              100      0       0      17        0.0%
BITBANK5           100      0       0      14        0.0%
BANK5              100      0       0      15        0.0%
BITBANK4           100      0       0      12        0.0%
BANK4              100      0       0      13        0.0%
BITBANK3           100      0       0      10        0.0%
BANK3              100      0       0      11        0.0%
BITBANK2           100      0       0       8        0.0%
BANK2              100      0      80       9       50.0%
BITBANK1           100      0       0       6        0.0%
BANK1              100     80     100       7      100.0%
BITBANK0            A0      0       0       4        0.0%
BANK0               A0     80      91       5       90.6%
BITCOMRAM           5F      0       0       0        0.0%
COMRAM              5F     2E      5D       1       97.9%
BITBIGSFRlhh        39      0       0      46        0.0%
BITBIGSFRhllll      23      0       0      45        0.0%
BITBIGSFRhhhhl      1D      0       0      37        0.0%
BITBANK15           16      0       0      34        0.0%
BANK15              16      0       0      35        0.0%
BITBIGSFRhhhll      15      0       0      39        0.0%
BITBIGSFRhhhhh       D      0       0      36        0.0%
BITBIGSFRll          D      0       0      48        0.0%
BITBIGSFRhlhh        9      0       0      40        0.0%
BITBIGSFRhhhlh       9      0       0      38        0.0%
BITBIGSFRlhl         4      0       0      47        0.0%
BITBIGSFRhlhl        2      0       0      41        0.0%
BITBIGSFRhllhhh      1      0       0      42        0.0%
BITBIGSFRhllhhl      1      0       0      43        0.0%
BITBIGSFRhllhll      1      0       0      44        0.0%
BIGSFR               0      0       0     200        0.0%
BITSFR_1             0      0       0     200        0.0%
SFR_1                0      0       0     200        0.0%
BITSFR               0      0       0     200        0.0%
SFR                  0      0       0     200        0.0%
STACK                0      0       0       2        0.0%
NULL                 0      0       0       0        0.0%
ABS                  0      0     26E      49        0.0%
DATA                 0      0     26E       3        0.0%
CODE                 0      0       0       0        0.0%


Microchip Technology PIC18 Macro Assembler V2.40 build 20220703182018 
Symbol Table                                                                                   Thu Jun 01 18:15:12 2023

                                            l51 1618                                              l90 1966  
                                            l93 1936                                              l87 14A2  
                                            l96 1906                                              l99 1996  
                                           l102 17DE                                             l311 19EC  
                                           l303 1AC2                                             l400 1B52  
                                           l145 179A                                             l330 1A30  
                                           l323 1B64                                             l307 141C  
                                           l172 1A9A                                             l333 1A84  
                                           l317 1820                                             l350 1526  
                                           l502 1BAA                                             l406 15A2  
                                           l430 1B8C                                             l190 1B14  
                                           l520 1BD4                                             l424 1B9C  
                                           l360 1750                                             l169 1A88  
                                           l505 1BB0                                             l433 1B84  
                                           l193 1B06                                             l601 1AAE  
                                           l442 1B6C                                             l523 1BDC  
                                           l363 1B5C                                             l427 1B94  
                                           l451 16EC                                             l339 1A4C  
                                           l372 11E6                                             l436 1B7C  
                                           l356 1A68                                             l196 1B22  
                                           l620 12D6                                             l445 1B48  
                                           l533 1AF8                                             l462 1BC0  
                                           l526 1BB4                                             l366 1B3E  
                                           l375 121A                                             l439 1B74  
                                           l472 1A0E                                             l481 1BA4  
                                           l369 1B30                                             l529 1AEA  
                                           l490 1BBC                                             l475 1BD8  
                                           l459 1BC4                                             l651 19C2  
                                           l484 1BCC                                             l388 130C  
                                           l493 1BD0                                             l389 137C  
                                           l478 1BB8                                             l496 1BC8  
                                           l648 18A0                                             l656 1682  
                                           l576 1860                                             l499 1AD6  
                                           l598 1AE8                                             u500 116C  
                                           u501 1168                                             u520 1212  
                                           u521 120E                                             u530 1302  
                                           u610 1A68                                             u531 12FE  
                                           u611 1A64                                             u620 19FC  
                                           u700 14A2                                             u621 19F8  
                                           u701 149E                                             u470 14BA  
                                           u518 119A                                             u630 17F4  
                                           u471 14B6                                             u519 11AE  
                                           u631 17F0                                             u480 1A1E  
                                           u608 1734                                             u640 180A  
                                           u481 1A1A                                             u609 174E  
                                           u641 1806                                             u730 1A96  
                                           u490 1AD4                                             u570 1AF8  
                                           u650 1392                                             u731 1A92  
                                           u491 1ACE                                             u571 1AF4  
                                           u651 138E                                             u660 19D6  
                                           u548 1330                                             u580 1700  
                                           u740 122E                                             u661 19D2  
                                           u549 1344                                             u581 16FC  
                                           u741 122A                                             u558 1556  
                                           u590 1714                                             u670 15BC  
                                           u750 12C8                                             u559 156A  
                                           u591 1710                                             u671 15B8  
                                           u496 1AD6                                             u568 16B0  
                                           u680 1618                                             u569 16C4  
                                           u681 1614                                             u690 1446  
                                           u691 1442                                             u755 12BE  
                                           u861 103C                                             u871 1048  
                                           u880 113A                                             u881 1136  
                                           u897 111E                           ?_I2C1_MasterOperation 0030  
                                           prod 000FF3                                             tosl 000FFD  
                                           wreg 000FE8                          ?_I2C1_MasterSendTxData 0030  
                                    _TXSTA1bits 000FAC                            _I2C1_DO_RX_NACK_STOP 1B6E  
                     ?_I2C1_MasterEnableRestart 0030                        fp__I2C1_DO_SEND_ADR_READ 0000  
                       fp__I2C1_DO_SEND_RESTART 0000                            I2C1_SetBuffer@buffer 0030  
                       ??_rd2RegCompleteHandler 003D                                            l2201 1934  
                                          l2213 1968                                            l2205 18D8  
                                          l2221 179C                                            l2301 1B34  
                                          l2215 197C                                            l2207 18EC  
                                          l2223 17C4                                            l2303 1B3C  
                                          l2311 1B2E                                            l2217 1994  
                                          l2209 1904                                            l2225 17DC  
                                          l2233 1BA0                                            l2241 1B8E  
                                          l2171 14F2                                            l2307 1B24  
                                          l2323 1178                                            l2315 1158  
                                          l2235 1B96                                            l2243 1B92  
                                          l2411 1B76                                            l2181 1A2E  
                                          l2173 1A6A                                            l2253 1BB6  
                                          l2229 1AC4                                            l2405 1548  
                                          l2309 1B26                                            l2341 1218  
                                          l2333 1188                                            l2237 1B9A  
                                          l2413 1B7A                                            l2261 1B6A  
                                          l2421 1B46                                            l2501 1380  
                                          l2183 1BCA                                            l2175 1A10  
                                          l2167 14A6                                            l2191 194C  
                                          l2271 1BBA                                            l2335 11E8  
                                          l2327 1180                                            l2319 1170  
                                          l2351 12E6                                            l2247 1B7E  
                                          l2511 139A                                            l2503 1384  
                                          l2185 1BC6                                            l2177 1A1E  
                                          l2169 14BA                                            l2193 1964  
                                          l2281 1BC2                                            l2257 1BA6  
                                          l2337 11FA                                            l2353 12EA  
                                          l2273 1B86                                            l2249 1B82  
                                          l2265 1B6E                                            l2417 1B40  
                                          l2433 1696                                            l2425 1684  
                                          l2521 13B6                                            l2513 139C  
                                          l2505 1392                                            l2601 148E  
                                          l2179 1A26                                            l2187 1BAC  
                                          l2291 1B54                                            l2339 1212  
                                          l2363 1312                                            l2355 1302  
                                          l2275 1B8A                                            l2267 1B72  
                                          l2259 1B66                                            l2419 1B42  
                                          l2427 1686                                            l2451 1700  
                                          l2531 13E6                                            l2523 13BE  
                                          l2515 13A0                                            l2507 1396  
                                          l2611 1796                                            l2603 1752  
                                          l2189 1938                                            l2197 1908  
                                          l2285 1BBE                                            l2293 1B56  
                                          l2373 1322                                            l2357 1306  
                                          l2349 12D8                                            l2381 1B4C  
                                          l2429 168E                                            l2453 1714  
                                          l2461 1A52                                            l2541 1412  
                                          l2533 13F2                                            l2525 13CA  
                                          l2517 13A8                                            l2509 1398  
                                          l2605 1766                                            l2613 1AB0  
                                          l2621 1848                                            l2199 191C  
                                          l2279 1BB2                                            l2295 1B5A  
                                          l2367 131A                                            l2383 1B50  
                                          l2439 169E                                            l2455 1718  
                                          l2447 16EE                                            l2463 1A56  
                                          l2551 1B5E                                            l2471 1A0C  
                                          l2543 1416                                            l2535 13FA  
                                          l2527 13D2                                            l2519 13AA  
                                          l2607 1776                                            l2615 1AC0  
                                          l2631 185C                                            l2623 184E  
                                          l2289 1BDA                                            l2561 19DA  
                                          l2457 1BCE                                            l2393 1536  
                                          l2449 16F2                                            l2465 1A5A  
                                          l2481 17E6                                            l2537 1406  
                                          l2529 13DE                                            l2545 141A  
                                          l2609 1786                                            l2633 185E  
                                          l2625 1850                                            l2617 1822  
                                          l2801 10B0                                            l2475 1BD2  
                                          l2563 19E6                                            l2555 19C4  
                                          l2395 153A                                            l2387 1528  
                                          l2299 1B32                                            l2379 1B4A  
                                          l2459 1A4E                                            l2491 1812  
                                          l2483 17F4                                            l2467 19EE  
                                          l2539 140E                                            l2571 1AFA  
                                          l2635 1A9C                                            l2627 1856  
                                          l2619 1842                                            l2811 1106  
                                          l2803 10C0                                            l2477 1BD6  
                                          l2565 19EA                                            l2557 19C8  
                                          l2389 152E                                            l2493 1816  
                                          l2485 17F6                                            l2469 19FC  
                                          l2549 1A32                                            l2581 15D4  
                                          l2573 1B16                                            l2629 1858  
                                          l2661 1AE4                                            l2821 1128  
                                          l2813 110C                                            l2805 10F4  
                                          l2655 1A88                                            l2559 19D6  
                                          l2399 1540                                            l2495 181A  
                                          l2487 17FA                                            l2479 17E2  
                                          l2583 15E8                                            l2575 15A6  
                                          l2591 1430                                            l2671 126C  
                                          l2663 121C                                            l2823 113A  
                                          l2815 1112                                            l2807 10FA  
                                          l2657 1A96                                            l2489 180A  
                                          l2497 181E                                            l2585 1600  
                                          l2577 15A6                                            l2681 1892  
                                          l2593 1446                                            l2569 1B08  
                                          l2665 122E                                            l2825 1144  
                                          l2817 1118                                            l2809 1100  
                                          l2931 11C0                                            l2587 1604  
                                          l2579 15BC                                            l2683 1998  
                                          l2675 1864                                            l2595 145E  
                                          l2659 1AD8                                            l2667 1236  
                                          l2827 114C                                            l2819 1126  
                                          l2933 157C                                            l2677 1872  
                                          l2597 1472                                            l2589 1420  
                                          l2685 161A                                            l2669 123A  
                                          l2927 16D6                                            l2679 187A  
                                          l2599 148A                                            l2687 1634  
                                          l2791 105A                                            l2783 1032  
                                          l2929 1356                                            l2689 165A  
                                          l2793 1070                                            l2785 1036  
                                          l2795 1074                                            l2787 1042  
                                          l2797 1080                                            l2789 1056  
                                          l2799 1098                                            _LATA 000F89  
                                          _LATB 000F8A                                            _LATC 000F8B  
                                          _LATD 000F8C                                            _LATE 000F8D  
                                          _LATF 000F8E                                            _LATG 000F8F  
                                          _LATH 000F90                         ??_wr2RegCompleteHandler 003D  
                              ??_I2C1_MasterFsm 003F                                   _EUSART1_Write 1A86  
                                   main@red_niz 0060                       ??_I2C1_CallbackReturnStop 003D  
                                          _main 1032                                            fsr2h 000FDA  
                                          indf2 000FDF                                            fsr2l 000FD9  
                         I2C1_ReadDataBlock@len 0044                           I2C1_ReadDataBlock@reg 0041  
                                          prodh 000FF4                                            prodl 000FF3  
                                          start 0000                                ??_I2C1_SetBuffer 0034  
                                  ___param_bank 000000                   I2C1_CallbackReturnStop@funPtr 003B  
                 __end_of_OSCILLATOR_Initialize 1AB0                               __end_of_I2C1_Open 141E  
                                         ?_main 0030                          _MAX30100_read_led_data 161A  
                    __end_of_i2c1_fsmStateTable 1031                                           _TRISA 000F92  
                                         _TRISB 000F93                                           _TRISC 000F94  
                                         _TRISD 000F95                                           _TRISE 000F96  
                                         _TRISF 000F97                                           _TRISG 000F98  
                                         _TRISH 000F99                          ??_I2C1_MasterGetRxData 0030  
                         ?_I2C1_DO_RX_NACK_STOP 0030                              _MAX30100_FIFO_init 1998  
                    ??_I2C1_CallbackReturnReset 003D                               ??_I2C1_MasterOpen 0030  
                             ??_I2C1_MasterStop 0030                               ??_I2C1_Initialize 0030  
                                         main@i 005D                          I2C1_ReadDataBlock@data 0042  
                                ?_EUSART1_Write 0030                             ?_MAX30100_FIFO_init 0030  
                                         pclath 000FFA                                           tablat 000FF5  
                                         status 000FD8                                    ??_I2C1_DO_RX 003D  
                                  ??_I2C1_DO_TX 003D              _EUSART1_DefaultFramingErrorHandler 000000  
                        ??_I2C1_DO_ADDRESS_NACK 003D                                    ??_I2C1_Close 0030  
                      fp__rd1RegCompleteHandler 0000                                 __initialization 18A2  
                    __end_of_EUSART1_Initialize 179C                                    __end_of_main 1158  
                      fp__wr1RegCompleteHandler 0000                            ??_MAX30100_FIFO_init 0044  
                  fp__I2C1_DO_SEND_RESTART_READ 0000                          ??_I2C1_MasterOperation 003F  
                                        ??_main 004F                                   __activetblptr 000003  
                            __end_of_I2C1_DO_RX 137E                              __end_of_I2C1_DO_TX 121C  
                         __end_of_MAX30100_init 18A2                          MAX30100_init@spo2_data 004A  
                            __end_of_I2C1_Close 19EE                                          _ANCON0 000F25  
                                        _ANCON1 000F24                                          _ANCON2 000F23  
                                        _RCREG1 000FAE                                          _RCSTA1 000FAB  
                                        _OSCCON 000FD3                                          _SPBRG1 000FAF  
                             ?_I2C1_MasterClose 0030                                          _TXREG1 000FAD  
                                        _TXSTA1 000FAC                         ??_I2C1_MasterDisableIrq 0030  
                             ?_I2C1_MasterStart 0030                               ?_I2C1_MasterWrite 0030  
                      ?_I2C1_MasterWaitForEvent 0030                              ??_I2C1_MasterClose 0030  
                              _I2C1_DO_TX_EMPTY 1528                              ??_I2C1_MasterStart 0030  
                            ??_I2C1_MasterWrite 0041                        ?_I2C1_Write1ByteRegister 0041  
                      ?_EUSART1_SetErrorHandler 0030                                          clear_0 18A8  
                                        clear_1 18B4                                          clear_2 18C0  
                                        clear_3 18CC                                          isa$std 000001  
              ??_EUSART1_SetOverrunErrorHandler 0033                 ?_EUSART1_SetOverrunErrorHandler 0030  
                      ??_I2C1_DO_SEND_ADR_WRITE 0031                               ?_I2C1_SetCallback 0030  
                        ??_I2C1_DO_RX_NACK_STOP 0030                           _I2C1_DO_SEND_ADR_READ 1B32  
                 ?_I2C1_SetDataCompleteCallback 0036                              ??_I2C1_SetCallback 0035  
                                  __mediumconst 0000                                          tblptrh 000FF7  
                                        tblptrl 000FF6                                          tblptru 000FF8  
                               ??_EUSART1_Write 0030                         _I2C1_DO_RX_NACK_RESTART 1B66  
                    fp__I2C1_DO_RX_NACK_RESTART 0000                               _SYSTEM_Initialize 1AD8  
                I2C1_SetDataCompleteCallback@cb 0036                                      __accesstop 0060  
                       __end_of__initialization 18D2                 I2C1_MasterOperation@returnValue 0040  
                            ?_SYSTEM_Initialize 0030                                   ___rparam_used 000001  
                                 ??_I2C1_Poller 003F                               ?_srednja_vrednost 0030  
                       _rdBlkRegCompleteHandler 179C                      fp__rdBlkRegCompleteHandler 0000  
                                __pcstackCOMRAM 0030                              ??_srednja_vrednost 0033  
                           ??_SYSTEM_Initialize 0033                __end_of_I2C1_MasterEnableRestart 1BCE  
                  MAX30100_init@red_led_current 0044                    ??_I2C1_DO_SEND_RESTART_WRITE 0030  
                       ??_I2C1_MasterSendTxData 0030                   MAX30100_read_led_data@tmp_reg 00ED  
                         __end_of_I2C1_DO_RESET 1B4A                       __end_of_SYSTEM_Initialize 1AEA  
                                    __pbssBANK0 00E9                                      __pbssBANK1 0100  
                                    __pbssBANK2 0200                 __end_of_I2C1_MasterWaitForEvent 1AFA  
                 __end_of_rd2RegCompleteHandler 1938                            I2C1_Open@returnValue 0031  
                 __end_of_wr2RegCompleteHandler 1998                 __end_of_I2C1_Write1ByteRegister 161A  
                         _rd1RegCompleteHandler 1938                          srednja_vrednost@indeks 0032  
                    __end_of_I2C1_ReadDataBlock 14A4                               _I2C1_DO_SEND_STOP 1B7E  
                         _wr1RegCompleteHandler 18D8                 __end_of_EUSART1_SetErrorHandler 1B24  
                      rd1RegCompleteHandler@ptr 003B                                   fp__I2C1_DO_RX 0000  
                                 fp__I2C1_DO_TX 0000                                 fp__I2C1_DO_IDLE 0000  
                               fp__I2C1_DO_RCEN 0000                         fp__I2C1_DO_ADDRESS_NACK 0000  
                            ?_I2C1_DO_SEND_STOP 0030                                 _I2C1_MasterOpen 19EE  
                               _I2C1_MasterStop 1BC6                                 _I2C1_Initialize 1AB0  
                       ?_MAX30100_read_led_data 004B                             __end_of_I2C1_Poller 1A6A  
                             fp__I2C1_DO_RX_ACK 0000                          ?_I2C1_DO_SEND_ADR_READ 0030  
                           ??_I2C1_DO_SEND_STOP 0030          __end_of_EUSART1_SetFramingErrorHandler 1B16  
                _EUSART1_SetFramingErrorHandler 1B08                                         _REFOCON 000F2A  
                             _I2C1_MasterIsNack 1AC4                                         _OSCCON2 000F64  
                                     _I2C1_Open 137E                       ??_I2C1_DO_RX_NACK_RESTART 0030  
                                       _OSCTUNE 000F9B                                         _SPBRGH1 000FD4  
                             _I2C1_MasterSetIrq 1BB2                                         _SSP1ADD 000FC8  
                                       _SSP1BUF 000FC9                              ?_I2C1_MasterIsNack 0030  
                    ?_I2C1_DO_SEND_RESTART_READ 0030                  ??_I2C1_SetDataCompleteCallback 003B  
                            ?_I2C1_MasterSetIrq 0030                                  main@ir_srednje 0053  
                            _i2c1_fsmStateTable 1001                             ??_I2C1_MasterIsNack 0030  
                     __end_of_I2C1_DO_SEND_STOP 1B86                       ??_rdBlkRegCompleteHandler 003D  
                            I2C1_SetCallback@cb 0030                             ??_I2C1_MasterSetIrq 0030  
                                       __Hparam 0000                                         __Lparam 0000  
                __end_of_MAX30100_read_led_data 1684                             fp__I2C1_DO_TX_EMPTY 0000  
                                  __psmallconst 1000                                         __pcinit 18A2  
                                 ?_I2C1_DO_IDLE 0030                             srednja_vrednost@niz 0030  
                                 ?_I2C1_DO_RCEN 0030                                         __ramtop 1000  
                                       __ptext0 1032                                         __ptext1 121C  
                                       __ptext2 1AD8                                         __ptext3 1822  
                                       __ptext4 1A9C                                         __ptext5 1AB0  
                                       __ptext6 1752                                         __ptext7 1AFA  
                                       __ptext8 1B08                                         __ptext9 1B16  
                      _I2C1_MasterEnableRestart 1BCA                       __end_of_I2C1_MasterIsNack 1AD8  
                  ?_I2C1_SetAddressNackCallback 0036                           _OSCILLATOR_Initialize 1A9C  
                     __end_of_I2C1_MasterSetIrq 1BB6                        __end_of_I2C1_DO_TX_EMPTY 15A4  
                            _EUSART1_Initialize 1752                        ??_PIN_MANAGER_Initialize 0030  
                      wr1RegCompleteHandler@ptr 003B                                      ?_I2C1_Open 0030  
                       fp__I2C1_DO_RX_NACK_STOP 0000                        ?_I2C1_CallbackReturnStop 003B  
             __end_of_I2C1_DO_SEND_RESTART_READ 1B9E                            end_of_initialization 18D2  
                    __end_of_I2C1_MasterSendAck 1BAC                             _I2C1_MasterClearIrq 1BDA  
                           ?_EUSART1_Initialize 0030                      __end_of_I2C1_MasterStartRx 1BBE  
                   _EUSART1_OverrunErrorHandler 00E3                          ?_rd1RegCompleteHandler 003B  
                        _I2C1_DO_SEND_ADR_WRITE 1B24                    __end_of_I2C1_DO_SEND_RESTART 1B8E  
                       __end_of_I2C1_MasterOpen 1A10                          ?_wr1RegCompleteHandler 003B  
                       __end_of_I2C1_MasterStop 1BCA                         __end_of_I2C1_Initialize 1AC4  
                                   _I2C1_Poller 1A4E                MAX30100_read_temp_data@temp_int1 002D  
              MAX30100_read_temp_data@temp_int2 002C                MAX30100_read_temp_data@temp_frac 002B  
                     ?_I2C1_CallbackReturnReset 003B                   __end_of_I2C1_MasterDisableIrq 1BD6  
                                   _I2C1_Status 0001                        fp__rd2RegCompleteHandler 0000  
                                       postdec2 000FDD                        fp__wr2RegCompleteHandler 0000  
                                       postinc0 000FEE                                         postinc2 000FDE  
                     I2C1_ReadDataBlock@address 0046                             _I2C1_MasterSendNack 1BAC  
           __end_of_I2C1_SetAddressNackCallback 1A4E                     _I2C1_SetAddressNackCallback 1A32  
                          ?_I2C1_MasterClearIrq 0030                                  ??_I2C1_DO_IDLE 0030  
                          ??_EUSART1_Initialize 0033                                  ??_I2C1_DO_RCEN 0030  
            __end_of_I2C1_DO_SEND_RESTART_WRITE 1B96                      _I2C1_DO_SEND_RESTART_WRITE 1B8E  
               __end_of_rdBlkRegCompleteHandler 17E0               srednja_vrednost@najstariji_indeks 003B  
                 ??_I2C1_SetAddressNackCallback 003B                 I2C1_SetDataCompleteCallback@ptr 0039  
                   I2C1_Write1ByteRegister@data 0042                  I2C1_CallbackReturnReset@funPtr 003B  
                          ?_I2C1_MasterSendNack 0030                             EUSART1_Write@txData 0030  
                    MAX30100_read_led_data@sens 004B                      rdBlkRegCompleteHandler@ptr 003B  
                                    main@ir_niz 0180                                      main@senzor 0055  
                         ??_I2C1_MasterClearIrq 0030                                  _I2C1_DO_RX_ACK 1B76  
                        ?_OSCILLATOR_Initialize 0030                 __end_of_I2C1_CallbackReturnStop 1BC6  
                 __end_of_I2C1_MasterSendTxData 1BA6                             start_initialization 18A2  
                                   ??_I2C1_Open 0030                           ??_I2C1_MasterSendNack 0030  
                         __end_of_EUSART1_Write 1A9C                        I2C1_SetBuffer@bufferSize 0032  
                              ?_I2C1_MasterOpen 0030                                ?_I2C1_MasterStop 0030  
                I2C1_Write1ByteRegister@address 0043                                ?_I2C1_Initialize 0030  
                        __end_of_I2C1_DO_RX_ACK 1B7E                         ??_I2C1_DO_SEND_ADR_READ 0030  
                            _I2C1_ReadDataBlock 141E                                I2C1_Open@address 0030  
                                   __pbssCOMRAM 0001                            _I2C1_DO_SEND_RESTART 1B86  
                                 __pcstackBANK0 0060                                   __pcstackBANK1 0180  
                           ?_I2C1_ReadDataBlock 0041                                   _MAX30100_init 1862  
                   ??_I2C1_DO_SEND_RESTART_READ 0030                            __end_of_I2C1_DO_IDLE 1B5E  
              ??_EUSART1_SetFramingErrorHandler 0033                 ?_EUSART1_SetFramingErrorHandler 0030  
                          __end_of_I2C1_DO_RCEN 1B54                   I2C1_SetAddressNackCallback@cb 0036  
                                     __pnvBANK0 00E0                           _rd2RegCompleteHandler 1908  
                     fp__I2C1_DO_SEND_ADR_WRITE 0000                                       _main$1428 0051  
                        _PIN_MANAGER_Initialize 1822                           _wr2RegCompleteHandler 1968  
                    ??_I2C1_MasterEnableRestart 0030                            ??_I2C1_ReadDataBlock 0046  
                      rd2RegCompleteHandler@ptr 003B                                  _I2C1_MasterFsm 16EE  
                              fp__I2C1_DO_RESET 0000                                 ?_I2C1_DO_RX_ACK 0030  
                      MAX30100_init@sample_rate 0046                         _I2C1_MasterWaitForEvent 1AEA  
                              _I2C1_MasterClose 1BD6                                  _I2C1_SetBuffer 1A10  
                              _I2C1_MasterStart 1BCE                                _I2C1_MasterWrite 1B5E  
                                   __smallconst 1000                         _I2C1_Write1ByteRegister 15A4  
                             MAX30100_init@mode 0048                                        _BAUDCON1 000F65  
            _EUSART1_DefaultOverrunErrorHandler 000000                           ?_I2C1_DO_SEND_RESTART 0030  
                          _EUSART1_ErrorHandler 00E0                               ?_I2C1_DO_TX_EMPTY 0030  
                                ?_MAX30100_init 0044                         _EUSART1_SetErrorHandler 1B16  
              __end_of_I2C1_CallbackReturnReset 1BC2                              ??_I2C1_DO_TX_EMPTY 003D  
                 I2C1_ReadDataBlock@bufferBlock 0047                         ??_rd1RegCompleteHandler 003D  
                       ?_I2C1_DO_SEND_ADR_WRITE 0030                       I2C1_MasterSendTxData@data 0030  
                       ??_wr1RegCompleteHandler 003D                                _I2C1_SetCallback 14A4  
       EUSART1_SetErrorHandler@interruptHandler 0030                                      _I2C1_DO_RX 12D8  
                                    _I2C1_DO_TX 1158                                        _PIE1bits 000F9D  
                                    _I2C1_Close 19C4                                    ?_I2C1_Poller 0030  
                        __end_of_I2C1_MasterFsm 1752                    __end_of_I2C1_MasterGetRxData 1BBA  
                                      _PIR1bits 000F9E                                        _PIR2bits 000FA1  
                            _I2C1_MasterSendAck 1BA6                       _I2C1_DO_SEND_RESTART_READ 1B96  
                                     main@F6973 0100                                       main@F6975 0200  
                                      _SSP1CON1 000FC6                                        _SSP1CON2 000FC5  
                        __end_of_I2C1_SetBuffer 1A32                                        _SSP1STAT 000FC7  
          __end_of_I2C1_SetDataCompleteCallback 1A86                    _I2C1_SetDataCompleteCallback 1A6A  
                            _I2C1_MasterStartRx 1BBA                     ?_I2C1_DO_SEND_RESTART_WRITE 0030  
                    I2C1_Write1ByteRegister@reg 0041                             ?_I2C1_MasterSendAck 0030  
                      ?_I2C1_DO_RX_NACK_RESTART 0030                            fp__I2C1_DO_SEND_STOP 0000  
                              _srednja_vrednost 121C                             ?_I2C1_MasterStartRx 0030  
                  __end_of_I2C1_DO_ADDRESS_NACK 16EE                             MAX30100_init@i_data 0049  
                      wr2RegCompleteHandler@ptr 003B                  __end_of_I2C1_DO_SEND_ADR_WRITE 1B32  
                                 _I2C1_DO_RESET 1B40                           I2C1_Close@returnValue 0030  
                      ?_rdBlkRegCompleteHandler 003B                             I2C1_SetCallback@idx 0035  
                           I2C1_SetCallback@ptr 0033                            ??_I2C1_MasterSendAck 0030  
                        ?_rd2RegCompleteHandler 003B                    __end_of_I2C1_MasterOperation 1822  
                        ?_wr2RegCompleteHandler 003B                            ??_I2C1_MasterStartRx 0030  
                                      __Hrparam 0000                        MAX30100_init@pulse_width 0047  
                               ?_I2C1_MasterFsm 0030                                        __Lrparam 0000  
                    __end_of_MAX30100_FIFO_init 19C4                       ??_I2C1_MasterWaitForEvent 0030  
                         _I2C1_MasterDisableIrq 1BD2                         ??_OSCILLATOR_Initialize 0030  
                               ?_I2C1_SetBuffer 0030                       ??_I2C1_Write1ByteRegister 0043  
                        ??_I2C1_DO_SEND_RESTART 0030                       ??_EUSART1_SetErrorHandler 0033  
                   _EUSART1_DefaultErrorHandler 000000                                 ??_MAX30100_init 0048  
                          srednja_vrednost@suma 00E9                                  ?_I2C1_DO_RESET 0030  
                                      __ptext10 161A                                        __ptext11 141E  
                                      __ptext20 1A4E                                        __ptext12 1862  
                                      __ptext21 1AEA                                        __ptext13 1998  
                                      __ptext30 1B8E                                        __ptext22 16EE  
                                      __ptext14 15A4                                        __ptext31 1B96  
                                      __ptext23 1684                                        __ptext15 1A32  
                                      __ptext40 1AC4                                        __ptext32 1B4A  
                                      __ptext24 1B40                                        __ptext16 137E  
                                      __ptext41 1B9E                                        __ptext33 12D8  
                                      __ptext25 1B66                                        __ptext17 19EE  
                                      __ptext50 1908                                        __ptext42 1BA6  
                                      __ptext34 1158                                        __ptext26 1B6E  
                                      __ptext18 1B5E                                        __ptext51 1938  
                                      __ptext43 1BB6                                        __ptext35 1B24  
                                      __ptext27 1B76                                        __ptext19 17E0  
                                      __ptext60 1BD2                                        __ptext52 1968  
                                      __ptext44 1BAC                                        __ptext36 1B32  
                                      __ptext28 1B7E                                        __ptext61 1BD6  
                                      __ptext53 1A6A                                        __ptext45 1BBA  
                                      __ptext37 1B54                                        __ptext29 1B86  
                                      __ptext62 1BDA                                        __ptext54 14A4  
                                      __ptext46 1BBE                                        __ptext38 1528  
                                      __ptext63 1A86                                        __ptext55 1A10  
                                      __ptext47 1BC2                                        __ptext39 1BB2  
                                      __ptext64 0000                                        __ptext56 1BC6  
                                      __ptext48 179C                                        __ptext57 1BCA  
                                      __ptext49 18D8                                        __ptext58 1BCE  
                                      __ptext59 19C4                                    _SSP1CON1bits 000FC6  
                                  _SSP1CON2bits 000FC5                        _I2C1_CallbackReturnReset 1BBE  
                   fp__I2C1_CallbackReturnReset 0000                                     ?_I2C1_DO_RX 0030  
                                   ?_I2C1_DO_TX 0030                        ??_MAX30100_read_led_data 004D  
                   __end_of_I2C1_MasterClearIrq 1BDE                    __end_of_I2C1_DO_RX_NACK_STOP 1B76  
                                   ?_I2C1_Close 0030  EUSART1_SetOverrunErrorHandler@interruptHandler 0030  
                                      isa$xinst 000000                 __end_of_I2C1_DO_RX_NACK_RESTART 1B6E  
                      I2C1_MasterOperation@read 003F                                    _SSP1STATbits 000FC7  
                 __end_of_I2C1_DO_SEND_ADR_READ 1B40                     _EUSART1_FramingErrorHandler 00E6  
                                  _I2C1_DO_IDLE 1B54                                    _I2C1_DO_RCEN 1B4A  
                   __end_of_I2C1_MasterSendNack 1BB2                                      _INTCONbits 000FF2  
                 fp__I2C1_DO_SEND_RESTART_WRITE 0000                  I2C1_SetAddressNackCallback@ptr 0039  
                          _I2C1_MasterGetRxData 1BB6                           _I2C1_MasterSendTxData 1B9E  
                      __end_of_I2C1_MasterClose 1BDA                         ?_PIN_MANAGER_Initialize 0030  
                      __end_of_I2C1_MasterStart 1BD2                        __end_of_I2C1_MasterWrite 1B66  
        __end_of_EUSART1_SetOverrunErrorHandler 1B08                  _EUSART1_SetOverrunErrorHandler 1AFA  
                                    _RCSTA1bits 000FAB                                ??_I2C1_DO_RX_ACK 0030  
                       _I2C1_CallbackReturnStop 1BC2                      fp__I2C1_CallbackReturnStop 0000  
                          _I2C1_DO_ADDRESS_NACK 1684                          ?_I2C1_MasterDisableIrq 0030  
EUSART1_SetFramingErrorHandler@interruptHandler 0030                              _eusart1RxLastError 002F  
         MAX30100_enable_temp_read@mode_cfg_reg 002E                        __end_of_I2C1_SetCallback 1528  
                               ??_I2C1_DO_RESET 0030                            _I2C1_MasterOperation 17E0  
                         ?_I2C1_MasterGetRxData 0030                  __end_of_PIN_MANAGER_Initialize 1862  
                 __end_of_rd1RegCompleteHandler 1968                   __end_of_wr1RegCompleteHandler 1908  
                      __end_of_srednja_vrednost 12D8                     MAX30100_init@ir_led_current 0045  
                         ?_I2C1_DO_ADDRESS_NACK 0030  
